Certificate:
    Data:
        Version: 3 (0x2)
        Serial Number:
            f4:15:03:b2:86:25:4f:05
        Signature Algorithm: sha256WithRSAEncryption
        Issuer: C=UK, ST=England, L=London, O=Qredo Ltd (Test), OU=Dev Unit Test, CN=TestIntermediateCA-1
        Validity
            Not Before: Apr 22 14:15:23 2015 GMT
            Not After : Apr 21 14:15:23 2018 GMT
        Subject: C=UK, ST=England, L=London, O=Qredo Ltd (Test), OU=Dev Unit Test, CN=TestCert5 using Intermediate CA 1
        Subject Public Key Info:
            Public Key Algorithm: rsaEncryption
            RSA Public Key: (2048 bit)
                Modulus (2048 bit):
                    00:a9:b0:07:a6:a1:b2:56:83:2d:01:7f:0a:2c:a1:
                    bf:0f:25:9b:81:58:79:e0:0c:53:62:0c:3c:d2:93:
                    fa:80:12:72:60:df:18:76:81:37:96:38:5a:fe:80:
                    f1:1f:54:7a:72:0b:c8:53:19:af:c5:4a:c1:aa:05:
                    f9:d7:54:bd:a2:33:fd:4c:a2:41:9e:6a:9d:1b:d5:
                    27:43:17:3e:41:de:46:14:c5:9d:7b:1c:00:6c:e6:
                    51:c1:66:e1:8e:cd:ec:43:43:53:d6:ac:b4:df:48:
                    05:e9:14:d5:a9:f4:42:6e:1b:98:3b:56:b3:da:fa:
                    4a:ad:4e:da:4a:ff:f5:9b:f5:ec:a0:ef:a4:9c:62:
                    06:3f:26:92:5c:38:c1:52:85:77:73:c7:fd:0c:ea:
                    8d:82:b4:49:38:2a:1d:db:4e:b4:96:21:12:c7:e0:
                    1d:54:77:32:43:30:cf:a2:b2:30:1d:3a:a2:e9:75:
                    7c:0c:cc:f1:08:c1:e2:17:a7:43:11:e9:78:7e:05:
                    e0:94:4c:94:21:24:49:7c:6b:9b:c9:3c:73:f3:8f:
                    1a:b1:85:b1:c6:3e:d5:50:ca:fd:22:1f:2b:f9:e7:
                    23:29:c3:75:91:62:dd:04:1d:e3:b9:20:d4:c4:50:
                    60:f1:95:80:2e:70:0b:3c:25:03:96:0a:6b:18:58:
                    af:d7
                Exponent: 65537 (0x10001)
        X509v3 extensions:
            X509v3 Basic Constraints: 
                CA:FALSE
            X509v3 Subject Key Identifier: 
                44:7E:3E:49:DF:88:55:9F:D0:BF:0E:3D:16:AB:19:CD:11:7A:FE:62
            X509v3 Authority Key Identifier: 
                keyid:40:8B:F2:3B:8C:84:A2:61:32:A1:29:C6:BC:DD:AF:8C:6B:7A:A1:F8

            X509v3 Subject Alternative Name: 
                email:admin@qredo.com
    Signature Algorithm: sha256WithRSAEncryption
        82:2e:a7:81:19:e6:2c:19:f0:95:72:e3:86:81:1b:1f:c0:16:
        22:34:94:f3:50:5c:29:95:0d:8d:a6:d5:61:d5:26:b5:9c:7a:
        36:ef:ee:a8:a8:ca:bf:c7:9a:6c:75:e9:2b:60:d4:16:a6:da:
        f1:cb:9e:f6:cc:66:41:11:01:8b:61:83:2f:2d:d5:59:f9:63:
        da:71:41:53:b1:9f:e4:18:fc:ed:91:1c:01:e4:58:4e:10:1d:
        e1:c2:49:f1:ff:ce:b7:12:34:cc:ab:ed:33:f0:63:8a:d8:8a:
        37:54:87:a2:f6:8f:9d:4e:be:6a:3d:02:ac:39:9c:99:d2:ce:
        ec:f4:ff:2e:44:5b:70:a9:19:32:13:51:2b:35:a9:71:95:bb:
        05:79:99:1f:df:99:9c:e5:44:64:ff:4f:d8:87:43:eb:d0:fb:
        c7:6c:35:24:21:c9:46:e7:bd:13:8d:fb:78:82:ae:2e:f4:5e:
        af:f6:77:45:ff:d5:c4:f2:0d:e0:48:e7:68:0d:53:49:b6:67:
        34:d1:1d:60:5b:58:db:99:4e:18:4e:6f:5a:6c:0b:1d:d1:fe:
        9e:55:4f:df:3e:99:8d:f9:b7:5e:c6:e7:85:5d:57:b5:87:af:
        9e:4d:30:8b:2a:2b:5b:c3:9d:dd:12:48:f0:08:d0:ab:61:ed:
        72:5d:11:1f
-----BEGIN CERTIFICATE-----
MIID/zCCAuegAwIBAgIJAPQVA7KGJU8FMA0GCSqGSIb3DQEBCwUAMIGCMQswCQYD
VQQGEwJVSzEQMA4GA1UECBMHRW5nbGFuZDEPMA0GA1UEBxMGTG9uZG9uMRkwFwYD
VQQKExBRcmVkbyBMdGQgKFRlc3QpMRYwFAYDVQQLEw1EZXYgVW5pdCBUZXN0MR0w
GwYDVQQDExRUZXN0SW50ZXJtZWRpYXRlQ0EtMTAeFw0xNTA0MjIxNDE1MjNaFw0x
ODA0MjExNDE1MjNaMIGPMQswCQYDVQQGEwJVSzEQMA4GA1UECBMHRW5nbGFuZDEP
MA0GA1UEBxMGTG9uZG9uMRkwFwYDVQQKExBRcmVkbyBMdGQgKFRlc3QpMRYwFAYD
VQQLEw1EZXYgVW5pdCBUZXN0MSowKAYDVQQDEyFUZXN0Q2VydDUgdXNpbmcgSW50
ZXJtZWRpYXRlIENBIDEwggEiMA0GCSqGSIb3DQEBAQUAA4IBDwAwggEKAoIBAQCp
sAemobJWgy0Bfwosob8PJZuBWHngDFNiDDzSk/qAEnJg3xh2gTeWOFr+gPEfVHpy
C8hTGa/FSsGqBfnXVL2iM/1MokGeap0b1SdDFz5B3kYUxZ17HABs5lHBZuGOzexD
Q1PWrLTfSAXpFNWp9EJuG5g7VrPa+kqtTtpK//Wb9eyg76ScYgY/JpJcOMFShXdz
x/0M6o2CtEk4Kh3bTrSWIRLH4B1UdzJDMM+isjAdOqLpdXwMzPEIweIXp0MR6Xh+
BeCUTJQhJEl8a5vJPHPzjxqxhbHGPtVQyv0iHyv55yMpw3WRYt0EHeO5INTEUGDx
lYAucAs8JQOWCmsYWK/XAgMBAAGjaTBnMAkGA1UdEwQCMAAwHQYDVR0OBBYEFER+
PknfiFWf0L8OPRarGc0Rev5iMB8GA1UdIwQYMBaAFECL8juMhKJhMqEpxrzdr4xr
eqH4MBoGA1UdEQQTMBGBD2FkbWluQHFyZWRvLmNvbTANBgkqhkiG9w0BAQsFAAOC
AQEAgi6ngRnmLBnwlXLjhoEbH8AWIjSU81BcKZUNjabVYdUmtZx6Nu/uqKjKv8ea
bHXpK2DUFqba8cue9sxmQREBi2GDLy3VWflj2nFBU7Gf5Bj87ZEcAeRYThAd4cJJ
8f/OtxI0zKvtM/BjitiKN1SHovaPnU6+aj0CrDmcmdLO7PT/LkRbcKkZMhNRKzWp
cZW7BXmZH9+ZnOVEZP9P2IdD69D7x2w1JCHJRue9E437eIKuLvRer/Z3Rf/VxPIN
4EjnaA1TSbZnNNEdYFtY25lOGE5vWmwLHdH+nlVP3z6Zjfm3XsbnhV1XtYevnk0w
iyorW8Od3RJI8AjQq2Htcl0RHw==
-----END CERTIFICATE-----
