Certificate:
    Data:
        Version: 3 (0x2)
        Serial Number:
            f4:15:03:b2:86:25:4f:02
        Signature Algorithm: sha256WithRSAEncryption
        Issuer: C=UK, ST=England, L=London, O=Qredo Ltd (Test), OU=Dev Unit Test, CN=TestIntermediateCA-1
        Validity
            Not Before: Apr 22 14:14:56 2015 GMT
            Not After : Apr 21 14:14:56 2018 GMT
        Subject: C=UK, ST=England, L=London, O=Qredo Ltd (Test), OU=Dev Unit Test, CN=TestCert2 using Intermediate CA 1
        Subject Public Key Info:
            Public Key Algorithm: rsaEncryption
            RSA Public Key: (2048 bit)
                Modulus (2048 bit):
                    00:c7:a0:c4:c8:dc:81:bb:b2:3a:f2:4e:bd:06:d6:
                    da:0f:4a:71:f8:f9:d2:a5:2d:c4:01:95:ea:e2:22:
                    b5:77:b0:ed:e5:e0:c5:ec:03:24:a8:44:e0:37:63:
                    28:f1:e1:5c:74:4b:af:61:80:86:98:3c:fd:15:33:
                    4c:40:f2:cb:fd:51:2d:c5:0e:cf:a8:b7:19:4c:1e:
                    90:37:76:01:20:58:1c:ed:3b:3e:10:e6:83:cc:c0:
                    46:9d:60:2b:ef:8b:65:ce:da:e7:82:dd:6c:81:0e:
                    ce:fb:56:92:30:54:91:c9:87:0d:f6:e5:6b:ff:51:
                    34:df:78:38:d0:99:e9:ac:d3:40:84:a4:2a:b2:4c:
                    eb:6d:be:06:d8:5a:3e:ec:04:10:55:5c:5d:0f:ed:
                    fa:49:10:75:0d:98:f2:5b:5d:d1:76:d7:3a:13:51:
                    31:bf:6c:3c:93:06:8e:46:97:a3:dc:36:65:c2:64:
                    be:4c:78:ac:b7:cb:ca:ec:5c:c6:82:21:c7:dd:86:
                    c5:b4:2f:0b:5b:37:e5:76:59:8f:0b:2a:18:41:e9:
                    52:03:63:a6:71:24:83:9f:60:4f:d5:55:c0:66:97:
                    5f:d3:a0:1e:6c:12:35:30:98:9e:90:43:45:f3:05:
                    a9:1b:80:c6:61:66:3c:f1:c6:23:de:2e:8c:74:48:
                    0a:f7
                Exponent: 65537 (0x10001)
        X509v3 extensions:
            X509v3 Basic Constraints: 
                CA:FALSE
            X509v3 Subject Key Identifier: 
                7E:2C:88:D0:88:81:86:B4:75:B1:A7:BD:4B:7F:05:15:A1:87:F4:11
            X509v3 Authority Key Identifier: 
                keyid:40:8B:F2:3B:8C:84:A2:61:32:A1:29:C6:BC:DD:AF:8C:6B:7A:A1:F8

            X509v3 Subject Alternative Name: 
                email:admin@qredo.com
    Signature Algorithm: sha256WithRSAEncryption
        59:59:ed:ea:9a:f7:39:f3:28:13:1c:53:71:12:fd:26:16:a1:
        57:dd:33:3d:60:f0:d6:bf:17:33:36:7d:8e:77:79:38:6d:82:
        8b:3b:6c:d6:23:43:1d:67:c2:32:d1:90:1e:72:e4:69:ad:db:
        b5:b3:dd:89:49:db:2b:51:21:67:ee:51:19:5d:f6:85:35:a2:
        1f:24:16:bc:ba:41:97:3c:21:62:b8:41:79:92:e3:62:12:cf:
        35:23:6b:ed:65:d3:52:99:e3:24:6f:ea:03:22:1b:64:c0:98:
        6a:d0:d6:ed:16:8a:ad:9a:6c:07:59:75:ef:9a:54:e7:34:a6:
        f1:a1:dc:3f:e0:6e:c5:16:36:b0:54:0f:1d:73:59:4b:76:c7:
        c7:4f:34:46:3b:16:8e:a0:b4:4c:83:56:0e:62:22:bf:d5:58:
        60:e1:76:12:6f:ce:14:d1:35:49:1e:79:78:49:cd:76:ba:90:
        ba:1e:c0:cd:47:70:13:bf:d5:91:e9:b1:67:67:fd:cd:c0:8b:
        ac:97:7e:51:56:0e:5a:9a:37:19:d5:ad:0b:19:d7:ef:f8:e3:
        f0:35:cc:78:ee:42:f2:95:54:62:c7:51:69:fa:0d:00:7c:ee:
        0f:49:da:8d:64:6f:d3:c5:78:b3:87:55:b8:b5:a3:3e:b8:06:
        a0:fe:31:1d
-----BEGIN CERTIFICATE-----
MIID/zCCAuegAwIBAgIJAPQVA7KGJU8CMA0GCSqGSIb3DQEBCwUAMIGCMQswCQYD
VQQGEwJVSzEQMA4GA1UECBMHRW5nbGFuZDEPMA0GA1UEBxMGTG9uZG9uMRkwFwYD
VQQKExBRcmVkbyBMdGQgKFRlc3QpMRYwFAYDVQQLEw1EZXYgVW5pdCBUZXN0MR0w
GwYDVQQDExRUZXN0SW50ZXJtZWRpYXRlQ0EtMTAeFw0xNTA0MjIxNDE0NTZaFw0x
ODA0MjExNDE0NTZaMIGPMQswCQYDVQQGEwJVSzEQMA4GA1UECBMHRW5nbGFuZDEP
MA0GA1UEBxMGTG9uZG9uMRkwFwYDVQQKExBRcmVkbyBMdGQgKFRlc3QpMRYwFAYD
VQQLEw1EZXYgVW5pdCBUZXN0MSowKAYDVQQDEyFUZXN0Q2VydDIgdXNpbmcgSW50
ZXJtZWRpYXRlIENBIDEwggEiMA0GCSqGSIb3DQEBAQUAA4IBDwAwggEKAoIBAQDH
oMTI3IG7sjryTr0G1toPSnH4+dKlLcQBleriIrV3sO3l4MXsAySoROA3Yyjx4Vx0
S69hgIaYPP0VM0xA8sv9US3FDs+otxlMHpA3dgEgWBztOz4Q5oPMwEadYCvvi2XO
2ueC3WyBDs77VpIwVJHJhw325Wv/UTTfeDjQmems00CEpCqyTOttvgbYWj7sBBBV
XF0P7fpJEHUNmPJbXdF21zoTUTG/bDyTBo5Gl6PcNmXCZL5MeKy3y8rsXMaCIcfd
hsW0LwtbN+V2WY8LKhhB6VIDY6ZxJIOfYE/VVcBml1/ToB5sEjUwmJ6QQ0XzBakb
gMZhZjzxxiPeLox0SAr3AgMBAAGjaTBnMAkGA1UdEwQCMAAwHQYDVR0OBBYEFH4s
iNCIgYa0dbGnvUt/BRWhh/QRMB8GA1UdIwQYMBaAFECL8juMhKJhMqEpxrzdr4xr
eqH4MBoGA1UdEQQTMBGBD2FkbWluQHFyZWRvLmNvbTANBgkqhkiG9w0BAQsFAAOC
AQEAWVnt6pr3OfMoExxTcRL9JhahV90zPWDw1r8XMzZ9jnd5OG2Cizts1iNDHWfC
MtGQHnLkaa3btbPdiUnbK1EhZ+5RGV32hTWiHyQWvLpBlzwhYrhBeZLjYhLPNSNr
7WXTUpnjJG/qAyIbZMCYatDW7RaKrZpsB1l175pU5zSm8aHcP+BuxRY2sFQPHXNZ
S3bHx080RjsWjqC0TINWDmIiv9VYYOF2Em/OFNE1SR55eEnNdrqQuh7AzUdwE7/V
kemxZ2f9zcCLrJd+UVYOWpo3GdWtCxnX7/jj8DXMeO5C8pVUYsdRafoNAHzuD0na
jWRv08V4s4dVuLWjPrgGoP4xHQ==
-----END CERTIFICATE-----
