Certificate:
    Data:
        Version: 3 (0x2)
        Serial Number:
            f4:15:03:b2:86:25:4f:03
        Signature Algorithm: sha256WithRSAEncryption
        Issuer: C=UK, ST=England, L=London, O=Qredo Ltd (Test), OU=Dev Unit Test, CN=TestIntermediateCA-1
        Validity
            Not Before: Apr 22 14:14:57 2015 GMT
            Not After : Apr 21 14:14:57 2018 GMT
        Subject: C=UK, ST=England, L=London, O=Qredo Ltd (Test), OU=Dev Unit Test, CN=TestCert3 using Intermediate CA 1
        Subject Public Key Info:
            Public Key Algorithm: rsaEncryption
            RSA Public Key: (4096 bit)
                Modulus (4096 bit):
                    00:bd:f3:f0:87:bf:8c:62:32:1e:93:6e:cb:3b:38:
                    12:4f:da:c3:1b:2e:e1:c4:61:b4:19:78:ee:2a:8c:
                    76:b1:a0:b2:02:92:27:23:9b:97:57:fe:fa:5f:87:
                    60:14:29:ad:e0:61:6f:93:ce:46:24:db:10:e7:42:
                    30:f8:22:7b:79:04:cf:fa:d4:8b:a9:0e:98:8c:a1:
                    86:d6:bf:0d:48:00:89:ff:92:44:b8:37:13:37:e4:
                    2b:e1:fe:1d:49:0e:e8:c7:99:8f:c2:88:e0:0d:3f:
                    03:42:ca:09:be:37:41:19:99:1c:ea:e4:cc:78:70:
                    a6:bd:34:ff:63:92:e9:a9:bd:47:a2:2b:48:dd:e3:
                    83:6c:76:24:29:e0:b6:09:f9:2c:7a:b6:4f:44:c5:
                    4d:08:db:d1:fa:ad:3a:4c:7b:d6:7d:7f:4a:12:a2:
                    15:5f:f4:72:2e:56:56:1c:36:fc:e1:c0:34:19:39:
                    0a:f6:5a:f8:0f:cc:0c:c8:5f:58:e7:0f:17:92:e6:
                    b6:99:f7:c9:16:91:10:c9:31:72:f3:f9:3d:a2:d1:
                    4b:f7:1e:64:a5:ab:5b:45:82:8a:b3:96:39:25:0c:
                    86:85:90:b7:13:56:d5:c5:ce:09:7b:0f:34:66:2c:
                    59:d6:17:22:75:ef:75:13:d4:7f:cd:6b:23:0d:19:
                    df:d1:03:5a:81:27:92:58:42:16:f4:20:99:ce:74:
                    28:43:0b:73:ee:ef:0a:62:42:70:76:0b:53:95:76:
                    c7:3b:14:76:04:35:85:fa:4a:1d:f2:a8:84:75:5e:
                    bf:1a:39:41:1c:4c:bb:bd:af:ce:3e:2c:ba:d3:c6:
                    19:53:93:2d:24:03:0f:7b:17:3a:8d:b9:c9:e2:dc:
                    c5:80:ee:89:c3:c2:0a:04:f7:8f:29:c3:a6:91:e3:
                    2c:42:96:41:9a:5b:a0:c2:8b:9a:70:a0:ae:1f:04:
                    11:0d:2f:74:17:73:e3:00:13:bb:23:6e:9b:68:a5:
                    48:2d:bc:40:60:33:bd:75:27:50:21:e3:89:23:23:
                    03:39:03:3b:0a:a7:f5:0b:df:60:72:ae:87:53:f6:
                    47:0f:be:ea:e4:e3:18:cf:e2:f5:d3:22:c5:0e:93:
                    74:8a:05:15:24:09:bf:4d:2a:94:23:bb:37:fc:83:
                    1b:e5:df:ac:96:b3:7f:42:a3:fb:d6:33:a8:a0:99:
                    7a:a6:5d:f7:05:2a:3c:eb:dd:76:58:a5:9a:67:a1:
                    f5:44:12:b5:59:49:a2:64:1e:76:2d:3f:2b:80:25:
                    5b:31:46:03:b6:7f:f4:a5:52:92:52:7c:85:25:a4:
                    11:10:ea:fc:7f:92:1d:34:19:c4:ff:4f:b0:8e:90:
                    e0:c4:cf
                Exponent: 65537 (0x10001)
        X509v3 extensions:
            X509v3 Basic Constraints: 
                CA:FALSE
            X509v3 Subject Key Identifier: 
                CA:12:D0:E2:B6:C2:23:57:EF:8B:E9:00:9B:BC:09:3C:D9:AC:0F:9E
            X509v3 Authority Key Identifier: 
                keyid:40:8B:F2:3B:8C:84:A2:61:32:A1:29:C6:BC:DD:AF:8C:6B:7A:A1:F8

            X509v3 Subject Alternative Name: 
                email:admin@qredo.com
    Signature Algorithm: sha256WithRSAEncryption
        6b:90:ba:7d:0c:e8:70:ba:ca:fb:0a:73:cf:32:d0:c8:52:91:
        04:d1:8b:8a:09:15:69:59:ee:81:a6:cc:72:24:bc:cd:d3:4b:
        72:8d:5a:e2:95:fc:0f:ae:84:ba:fa:74:da:ef:2b:70:73:ee:
        d5:4d:55:cd:9b:65:0e:bd:ab:1d:75:4a:66:41:6e:25:39:17:
        5d:a3:11:c5:65:be:82:0f:28:1f:9b:a4:30:90:61:42:61:65:
        ac:29:57:c9:e0:fc:6c:60:d1:56:7b:94:a6:21:71:82:f4:0a:
        52:42:e5:80:9e:1b:ed:1d:74:61:be:5f:b1:91:f7:6d:14:d9:
        7c:14:ad:fe:42:e3:d9:e6:2a:4f:05:46:b3:8c:e7:4d:e0:26:
        5d:b0:8a:df:b4:d4:bb:33:4d:42:6c:66:4b:ff:7f:9d:c8:13:
        3a:f0:e0:d2:95:24:86:37:dc:0e:0c:42:36:60:0a:07:37:e0:
        05:7a:4d:3b:34:20:7d:e7:9c:18:59:a2:17:9c:ce:41:89:06:
        d6:ed:d2:8b:79:64:1f:13:e3:3e:3a:0d:97:2e:19:4c:9b:11:
        fb:ab:41:de:3d:52:57:51:da:cf:15:06:dc:03:21:5b:b7:26:
        4a:4c:ca:36:1f:2c:a3:1b:ed:61:e1:29:75:ac:ad:48:f3:da:
        6e:ff:4b:c8
-----BEGIN CERTIFICATE-----
MIIE/zCCA+egAwIBAgIJAPQVA7KGJU8DMA0GCSqGSIb3DQEBCwUAMIGCMQswCQYD
VQQGEwJVSzEQMA4GA1UECBMHRW5nbGFuZDEPMA0GA1UEBxMGTG9uZG9uMRkwFwYD
VQQKExBRcmVkbyBMdGQgKFRlc3QpMRYwFAYDVQQLEw1EZXYgVW5pdCBUZXN0MR0w
GwYDVQQDExRUZXN0SW50ZXJtZWRpYXRlQ0EtMTAeFw0xNTA0MjIxNDE0NTdaFw0x
ODA0MjExNDE0NTdaMIGPMQswCQYDVQQGEwJVSzEQMA4GA1UECBMHRW5nbGFuZDEP
MA0GA1UEBxMGTG9uZG9uMRkwFwYDVQQKExBRcmVkbyBMdGQgKFRlc3QpMRYwFAYD
VQQLEw1EZXYgVW5pdCBUZXN0MSowKAYDVQQDEyFUZXN0Q2VydDMgdXNpbmcgSW50
ZXJtZWRpYXRlIENBIDEwggIiMA0GCSqGSIb3DQEBAQUAA4ICDwAwggIKAoICAQC9
8/CHv4xiMh6Tbss7OBJP2sMbLuHEYbQZeO4qjHaxoLICkicjm5dX/vpfh2AUKa3g
YW+TzkYk2xDnQjD4Int5BM/61IupDpiMoYbWvw1IAIn/kkS4NxM35Cvh/h1JDujH
mY/CiOANPwNCygm+N0EZmRzq5Mx4cKa9NP9jkumpvUeiK0jd44NsdiQp4LYJ+Sx6
tk9ExU0I29H6rTpMe9Z9f0oSohVf9HIuVlYcNvzhwDQZOQr2WvgPzAzIX1jnDxeS
5raZ98kWkRDJMXLz+T2i0Uv3HmSlq1tFgoqzljklDIaFkLcTVtXFzgl7DzRmLFnW
FyJ173UT1H/NayMNGd/RA1qBJ5JYQhb0IJnOdChDC3Pu7wpiQnB2C1OVdsc7FHYE
NYX6Sh3yqIR1Xr8aOUEcTLu9r84+LLrTxhlTky0kAw97FzqNucni3MWA7onDwgoE
948pw6aR4yxClkGaW6DCi5pwoK4fBBENL3QXc+MAE7sjbptopUgtvEBgM711J1Ah
44kjIwM5AzsKp/UL32ByrodT9kcPvurk4xjP4vXTIsUOk3SKBRUkCb9NKpQjuzf8
gxvl36yWs39Co/vWM6igmXqmXfcFKjzr3XZYpZpnofVEErVZSaJkHnYtPyuAJVsx
RgO2f/SlUpJSfIUlpBEQ6vx/kh00GcT/T7COkODEzwIDAQABo2kwZzAJBgNVHRME
AjAAMB0GA1UdDgQWBBTKEtDitsIjV++L6QCbvAk82awPnjAfBgNVHSMEGDAWgBRA
i/I7jISiYTKhKca83a+Ma3qh+DAaBgNVHREEEzARgQ9hZG1pbkBxcmVkby5jb20w
DQYJKoZIhvcNAQELBQADggEBAGuQun0M6HC6yvsKc88y0MhSkQTRi4oJFWlZ7oGm
zHIkvM3TS3KNWuKV/A+uhLr6dNrvK3Bz7tVNVc2bZQ69qx11SmZBbiU5F12jEcVl
voIPKB+bpDCQYUJhZawpV8ng/Gxg0VZ7lKYhcYL0ClJC5YCeG+0ddGG+X7GR920U
2XwUrf5C49nmKk8FRrOM503gJl2wit+01LszTUJsZkv/f53IEzrw4NKVJIY33A4M
QjZgCgc34AV6TTs0IH3nnBhZoheczkGJBtbt0ot5ZB8T4z46DZcuGUybEfurQd49
UldR2s8VBtwDIVu3JkpMyjYfLKMb7WHhKXWsrUjz2m7/S8g=
-----END CERTIFICATE-----
