Certificate:
    Data:
        Version: 3 (0x2)
        Serial Number:
            f4:15:03:b2:86:25:4e:ff
        Signature Algorithm: sha256WithRSAEncryption
        Issuer: C=UK, ST=England, O=Qredo Ltd (Test), OU=Dev Unit Test, CN=TestRootCA
        Validity
            Not Before: Apr 22 14:14:55 2015 GMT
            Not After : Apr 21 14:14:55 2018 GMT
        Subject: C=UK, ST=England, L=London, O=Qredo Ltd (Test), OU=Dev Unit Test, CN=TestIntermediateCA-1
        Subject Public Key Info:
            Public Key Algorithm: rsaEncryption
            RSA Public Key: (2048 bit)
                Modulus (2048 bit):
                    00:e3:b6:2f:1a:fc:15:4c:e0:fa:4b:bb:6a:68:e8:
                    99:e4:86:2b:05:d1:ff:22:26:24:e8:47:5e:15:e6:
                    fe:1e:e5:74:2c:ec:49:6a:55:18:ee:b4:c8:7b:91:
                    aa:4b:ed:d1:ce:68:a6:72:a8:da:50:89:b0:55:b0:
                    71:b3:dd:98:e5:cf:7e:59:e3:06:b9:e0:8e:9c:cd:
                    a4:cb:c8:78:43:cf:18:bf:40:94:ce:e9:08:e9:95:
                    fd:a6:cb:17:97:3c:46:27:25:13:ec:e0:79:d5:8f:
                    f4:ea:43:ef:39:b8:36:79:44:06:80:70:3a:d4:14:
                    88:23:66:e2:5c:50:d8:dc:ad:60:5d:6f:ad:59:7e:
                    e3:ca:e4:57:74:5b:26:e5:c0:20:28:c8:6e:6a:4d:
                    a7:d7:3d:68:83:be:18:3d:91:b6:27:c5:6a:71:2b:
                    65:a9:18:a8:eb:b1:81:61:62:1c:ec:b6:14:2b:08:
                    4b:7c:8c:18:87:b9:46:db:ee:a3:db:c7:59:03:d2:
                    84:cc:cc:64:ba:e6:e7:12:77:15:c4:41:e6:99:3f:
                    91:b9:10:14:e6:42:21:96:b3:67:de:9a:87:3b:7b:
                    bf:54:00:7c:5f:83:1c:0d:18:92:58:50:55:52:78:
                    8f:8f:18:eb:63:7a:00:f1:5c:1e:6a:26:da:ce:45:
                    ab:77
                Exponent: 65537 (0x10001)
        X509v3 extensions:
            X509v3 Subject Key Identifier: 
                40:8B:F2:3B:8C:84:A2:61:32:A1:29:C6:BC:DD:AF:8C:6B:7A:A1:F8
            X509v3 Authority Key Identifier: 
                keyid:5B:7D:72:FC:6A:C3:45:43:B8:52:1A:62:64:FB:24:1A:A3:8A:F6:7C
                DirName:/C=UK/ST=England/O=Qredo Ltd (Test)/OU=Dev Unit Test/CN=TestRootCA
                serial:F4:15:03:B2:86:25:4E:FE

            X509v3 Basic Constraints: 
                CA:TRUE
            X509v3 Subject Alternative Name: 
                email:admin@qredo.com
    Signature Algorithm: sha256WithRSAEncryption
        c1:c1:f6:da:f3:62:02:f5:2d:c1:db:67:45:0f:c9:de:81:c1:
        f0:1f:46:e9:b6:56:94:76:4c:db:a3:09:83:a3:d5:19:79:92:
        6f:09:ae:05:c2:86:f4:b0:af:94:34:ca:03:4f:d5:a1:43:0b:
        26:70:16:cd:dd:e7:fd:67:fe:b0:84:48:01:ed:1f:3a:96:3b:
        dc:7f:52:f0:ba:8b:71:1b:81:94:4c:54:6e:55:57:68:13:bc:
        dc:ca:2d:e3:e2:db:3d:a1:fb:67:0e:3e:29:5e:6f:b0:b3:f4:
        64:18:26:b7:f4:d7:26:d8:96:a4:68:b5:04:0b:95:d3:14:a1:
        30:33:79:fa:7c:bc:92:ed:bc:d0:8b:5f:37:cc:80:01:72:cb:
        83:50:8c:ee:21:1a:40:79:a0:8f:02:35:f2:2c:69:98:6b:d2:
        e6:af:ca:94:0c:92:ab:13:c7:50:6b:a3:8b:d8:00:91:c4:7e:
        45:c4:f8:ad:1e:cc:97:d1:29:0c:0d:ad:25:06:a4:9f:e3:41:
        5e:e9:00:b1:ab:fa:18:dc:df:7e:0b:ed:b4:a5:03:6a:22:93:
        2d:df:ac:e2:9c:0f:45:ce:ff:43:3c:fc:1f:73:a8:e1:aa:a0:
        1e:bd:5e:ee:a6:88:00:d7:f0:ba:04:4c:82:54:3d:3b:fa:89:
        7e:48:67:67
-----BEGIN CERTIFICATE-----
MIIEVjCCAz6gAwIBAgIJAPQVA7KGJU7/MA0GCSqGSIb3DQEBCwUAMGcxCzAJBgNV
BAYTAlVLMRAwDgYDVQQIEwdFbmdsYW5kMRkwFwYDVQQKExBRcmVkbyBMdGQgKFRl
c3QpMRYwFAYDVQQLEw1EZXYgVW5pdCBUZXN0MRMwEQYDVQQDEwpUZXN0Um9vdENB
MB4XDTE1MDQyMjE0MTQ1NVoXDTE4MDQyMTE0MTQ1NVowgYIxCzAJBgNVBAYTAlVL
MRAwDgYDVQQIEwdFbmdsYW5kMQ8wDQYDVQQHEwZMb25kb24xGTAXBgNVBAoTEFFy
ZWRvIEx0ZCAoVGVzdCkxFjAUBgNVBAsTDURldiBVbml0IFRlc3QxHTAbBgNVBAMT
FFRlc3RJbnRlcm1lZGlhdGVDQS0xMIIBIjANBgkqhkiG9w0BAQEFAAOCAQ8AMIIB
CgKCAQEA47YvGvwVTOD6S7tqaOiZ5IYrBdH/IiYk6EdeFeb+HuV0LOxJalUY7rTI
e5GqS+3RzmimcqjaUImwVbBxs92Y5c9+WeMGueCOnM2ky8h4Q88Yv0CUzukI6ZX9
pssXlzxGJyUT7OB51Y/06kPvObg2eUQGgHA61BSII2biXFDY3K1gXW+tWX7jyuRX
dFsm5cAgKMhuak2n1z1og74YPZG2J8VqcStlqRio67GBYWIc7LYUKwhLfIwYh7lG
2+6j28dZA9KEzMxkuubnEncVxEHmmT+RuRAU5kIhlrNn3pqHO3u/VAB8X4McDRiS
WFBVUniPjxjrY3oA8VweaibazkWrdwIDAQABo4HoMIHlMB0GA1UdDgQWBBRAi/I7
jISiYTKhKca83a+Ma3qh+DCBmQYDVR0jBIGRMIGOgBRbfXL8asNFQ7hSGmJk+yQa
o4r2fKFrpGkwZzELMAkGA1UEBhMCVUsxEDAOBgNVBAgTB0VuZ2xhbmQxGTAXBgNV
BAoTEFFyZWRvIEx0ZCAoVGVzdCkxFjAUBgNVBAsTDURldiBVbml0IFRlc3QxEzAR
BgNVBAMTClRlc3RSb290Q0GCCQD0FQOyhiVO/jAMBgNVHRMEBTADAQH/MBoGA1Ud
EQQTMBGBD2FkbWluQHFyZWRvLmNvbTANBgkqhkiG9w0BAQsFAAOCAQEAwcH22vNi
AvUtwdtnRQ/J3oHB8B9G6bZWlHZM26MJg6PVGXmSbwmuBcKG9LCvlDTKA0/VoUML
JnAWzd3n/Wf+sIRIAe0fOpY73H9S8LqLcRuBlExUblVXaBO83Mot4+LbPaH7Zw4+
KV5vsLP0ZBgmt/TXJtiWpGi1BAuV0xShMDN5+ny8ku280ItfN8yAAXLLg1CM7iEa
QHmgjwI18ixpmGvS5q/KlAySqxPHUGuji9gAkcR+RcT4rR7Ml9EpDA2tJQakn+NB
XukAsav6GNzffgvttKUDaiKTLd+s4pwPRc7/Qzz8H3Oo4aqgHr1e7qaIANfwugRM
glQ9O/qJfkhnZw==
-----END CERTIFICATE-----
