Certificate:
    Data:
        Version: 3 (0x2)
        Serial Number:
            f4:15:03:b2:86:25:4f:04
        Signature Algorithm: sha256WithRSAEncryption
        Issuer: C=UK, ST=England, L=London, O=Qredo Ltd (Test), OU=Dev Unit Test, CN=TestIntermediateCA-1
        Validity
            Not Before: Apr 22 14:15:23 2015 GMT
            Not After : Apr 21 14:15:23 2018 GMT
        Subject: C=UK, ST=England, L=London, O=Qredo Ltd (Test), OU=Dev Unit Test, CN=TestCert4 using Intermediate CA 1
        Subject Public Key Info:
            Public Key Algorithm: rsaEncryption
            RSA Public Key: (8192 bit)
                Modulus (8192 bit):
                    00:c3:d1:02:07:87:5e:5c:c6:2c:47:ac:2b:9f:d7:
                    55:04:9b:56:8c:04:30:5f:80:90:f5:20:43:1c:9f:
                    fa:33:3f:77:6d:f8:28:e1:c2:dc:a7:2c:13:47:5f:
                    f7:c5:be:9c:cf:f3:9e:70:44:3c:5a:4f:88:43:43:
                    0e:a3:8f:7d:f4:f9:d3:54:cb:72:07:cc:f0:82:fc:
                    5e:9a:ca:f7:4e:c2:bc:e6:3f:cf:ed:b5:6d:66:5d:
                    a6:8f:17:1c:f1:9e:65:6f:4b:80:00:9e:00:a8:82:
                    1c:54:48:ed:7b:9a:50:27:ff:e3:d0:00:3b:52:ba:
                    8b:21:bd:90:62:ca:5c:8a:24:66:c5:4a:83:c1:18:
                    40:9b:ac:06:71:19:bb:62:f4:41:fa:42:12:df:1f:
                    76:99:99:70:b2:2f:9d:dd:91:55:d2:b8:ff:44:59:
                    9b:de:53:dd:e4:06:cd:51:40:48:02:2b:9c:38:12:
                    47:8a:8f:57:79:99:b8:af:15:a1:26:d2:27:d3:bc:
                    c6:ce:ad:27:f2:7a:e6:35:b4:d5:d2:05:e9:91:b5:
                    7a:07:be:67:ad:b0:e6:7e:b8:dd:78:61:ee:7d:59:
                    92:b1:43:a3:a9:0f:9f:e9:1c:e0:84:04:28:3a:14:
                    37:b3:d4:77:19:8e:0e:41:4c:ba:b9:b1:09:dd:cb:
                    f8:d0:9f:5a:db:79:a9:49:63:73:c4:2a:8b:45:8f:
                    3f:c2:88:66:99:4c:6e:05:4c:32:2b:04:be:2b:a5:
                    f6:06:4b:30:26:f6:c8:65:46:5b:58:b3:c3:8e:23:
                    a6:77:95:88:76:4c:80:22:e2:37:e9:e5:d6:65:c1:
                    0f:ab:2b:09:ce:76:e6:52:8a:8a:df:db:e1:c0:cf:
                    f3:bf:9e:b9:21:7e:fc:98:6c:7e:49:db:fc:cb:2d:
                    f1:46:66:9d:83:79:31:ef:63:1b:a2:11:83:62:d3:
                    c0:82:78:17:00:25:e8:cc:05:e7:a7:39:f6:16:e2:
                    50:0a:77:a5:f0:94:a0:5f:ac:91:56:c9:f9:06:35:
                    45:5e:f7:63:91:ce:53:c3:ba:cb:a8:57:83:e2:35:
                    ad:66:68:f5:c4:6d:e0:7b:31:e9:2a:16:cd:8a:60:
                    a0:0a:87:12:08:14:d2:03:a2:ac:d6:40:9a:7f:9c:
                    d1:7a:e3:cd:bb:e4:73:dc:07:aa:98:54:9a:0a:2c:
                    eb:a0:d3:39:12:50:c5:92:16:44:f5:e6:71:cf:ed:
                    59:a5:35:61:ba:c2:70:c1:8a:69:24:5f:72:48:08:
                    65:f1:ab:7d:84:ad:f8:d1:58:18:a9:e6:d6:27:5b:
                    7e:fd:64:7b:4b:2f:10:ef:43:20:d7:cd:a4:e2:4a:
                    ca:b7:9b:ac:53:df:f1:72:e6:c1:0b:ef:7c:31:d1:
                    1b:c7:f2:cf:41:09:74:bb:9f:26:ee:bd:f4:31:18:
                    ff:db:29:aa:6d:ca:fc:4d:54:fe:31:d7:ea:d5:8e:
                    98:35:2c:77:0b:34:c9:3e:cb:64:f8:b5:1b:f9:82:
                    98:9e:66:79:e1:30:2d:2d:7d:6b:cf:33:1f:70:e9:
                    eb:17:38:a2:24:b3:41:07:29:87:a6:b8:81:f0:3d:
                    42:bf:c7:03:b5:a8:15:af:75:db:6b:1a:01:68:0b:
                    80:c3:f0:ae:84:9a:5b:e7:29:78:3d:f6:ac:cf:ef:
                    a6:9e:f0:2a:c4:e9:63:a8:5b:45:48:dd:60:51:dc:
                    a1:5d:53:18:3e:72:4e:af:13:a0:6b:f5:98:38:3e:
                    09:13:87:b2:63:c0:fd:08:29:a9:01:35:32:64:7a:
                    10:dd:b5:bd:ad:78:a5:0f:37:a1:62:91:9f:ef:fd:
                    de:13:1d:94:42:b5:58:85:dd:86:6c:95:c3:aa:96:
                    2b:f5:12:73:d0:80:1b:09:e5:88:a4:61:c1:0d:92:
                    4c:b7:a7:7a:16:23:2b:dd:26:af:58:ac:d6:00:17:
                    e2:3a:84:da:10:07:46:9c:67:b5:91:c4:7a:b5:2f:
                    ee:9b:0a:ab:e4:ec:52:55:d2:ea:4e:bc:7a:3c:47:
                    e7:72:6b:a7:88:3a:3e:79:c8:65:a3:55:f7:da:06:
                    d2:7f:de:59:8a:27:92:b6:bb:03:96:7c:e3:22:8c:
                    29:82:75:61:ef:c6:25:55:91:4c:4a:f0:d3:20:d0:
                    4e:7a:c9:d6:4f:52:13:b1:e6:e7:05:29:4c:11:a7:
                    22:97:fd:f5:07:b6:7f:f5:5c:c9:13:1e:f5:92:97:
                    b3:42:dc:63:14:2b:dc:c4:f9:96:8b:35:ec:c0:fb:
                    51:9f:30:7f:a0:4d:2d:3b:08:2c:66:0f:72:1f:ac:
                    e8:6e:a5:b1:a3:c8:57:4f:54:b2:ab:59:e7:c1:81:
                    fa:cd:34:b5:73:af:72:64:89:7f:86:91:3c:d7:76:
                    c3:ea:7b:58:71:97:d1:61:4d:ff:fb:66:b6:75:f8:
                    67:ec:b6:e8:e6:b2:ef:c8:c2:3f:5c:2a:52:68:86:
                    fe:2b:7c:9e:48:ce:bd:8c:3d:0c:73:d6:2e:01:55:
                    2a:a7:b2:dd:df:92:f7:bd:36:ac:eb:34:c0:ad:ae:
                    ae:54:b6:74:36:f4:24:b8:82:c8:85:f8:0e:6c:fc:
                    0a:ed:b1:0c:43:aa:39:67:93:64:0d:95:45:a3:bd:
                    58:b7:7b:db:50:bc:d8:9c:f9:85:31:b3:36:dc:82:
                    ef:a5:9f:02:79:7c:4b:87:5e:e5:01:c6:ce:67:06:
                    18:c1:f3:88:4f
                Exponent: 65537 (0x10001)
        X509v3 extensions:
            X509v3 Basic Constraints: 
                CA:FALSE
            X509v3 Subject Key Identifier: 
                2D:E0:FF:10:A9:53:04:66:C6:9B:31:26:92:58:63:AA:33:DD:13:50
            X509v3 Authority Key Identifier: 
                keyid:40:8B:F2:3B:8C:84:A2:61:32:A1:29:C6:BC:DD:AF:8C:6B:7A:A1:F8

            X509v3 Subject Alternative Name: 
                email:admin@qredo.com
    Signature Algorithm: sha256WithRSAEncryption
        06:14:5b:d0:20:cd:eb:a1:b2:f0:ba:9e:d8:62:c1:64:b3:ac:
        ea:8a:0c:56:d5:6f:23:7b:79:d3:bf:6b:c9:42:b7:cd:fb:2d:
        d4:42:1c:b8:d6:66:6d:cc:e5:c7:fc:01:0d:31:34:69:16:20:
        ea:1d:d4:78:2d:dc:37:c1:43:e6:ec:88:e5:96:41:8f:6d:4e:
        8a:e3:cf:0f:d8:31:ed:88:21:6b:b0:16:86:3c:9b:0e:ec:44:
        89:63:06:09:45:38:07:38:8d:54:57:9f:99:b1:3f:e4:b5:fb:
        dd:8a:d6:5f:97:11:59:2e:39:f0:93:85:21:66:13:42:df:14:
        a9:4f:22:6a:91:ee:6a:27:c5:6c:30:26:0b:da:0f:5c:c2:48:
        b5:1f:fb:de:ff:ca:dd:7f:b1:bb:45:37:37:24:3a:fa:7e:e7:
        98:3c:b6:15:95:3c:90:4c:f7:d2:6d:44:4f:57:02:2c:58:42:
        25:00:20:b5:ba:95:51:12:80:2e:cb:cb:d8:df:7b:91:e7:7f:
        3a:7b:80:52:64:10:45:f7:f4:a3:f1:08:8a:b0:00:e3:26:ff:
        96:4b:38:c8:7a:78:f3:72:7b:76:27:a3:fa:1c:ca:63:8f:de:
        34:68:f6:0f:85:2e:b6:bb:00:50:69:71:c4:53:df:d5:b7:86:
        69:87:8f:94
-----BEGIN CERTIFICATE-----
MIIG/zCCBeegAwIBAgIJAPQVA7KGJU8EMA0GCSqGSIb3DQEBCwUAMIGCMQswCQYD
VQQGEwJVSzEQMA4GA1UECBMHRW5nbGFuZDEPMA0GA1UEBxMGTG9uZG9uMRkwFwYD
VQQKExBRcmVkbyBMdGQgKFRlc3QpMRYwFAYDVQQLEw1EZXYgVW5pdCBUZXN0MR0w
GwYDVQQDExRUZXN0SW50ZXJtZWRpYXRlQ0EtMTAeFw0xNTA0MjIxNDE1MjNaFw0x
ODA0MjExNDE1MjNaMIGPMQswCQYDVQQGEwJVSzEQMA4GA1UECBMHRW5nbGFuZDEP
MA0GA1UEBxMGTG9uZG9uMRkwFwYDVQQKExBRcmVkbyBMdGQgKFRlc3QpMRYwFAYD
VQQLEw1EZXYgVW5pdCBUZXN0MSowKAYDVQQDEyFUZXN0Q2VydDQgdXNpbmcgSW50
ZXJtZWRpYXRlIENBIDEwggQiMA0GCSqGSIb3DQEBAQUAA4IEDwAwggQKAoIEAQDD
0QIHh15cxixHrCuf11UEm1aMBDBfgJD1IEMcn/ozP3dt+CjhwtynLBNHX/fFvpzP
855wRDxaT4hDQw6jj330+dNUy3IHzPCC/F6ayvdOwrzmP8/ttW1mXaaPFxzxnmVv
S4AAngCoghxUSO17mlAn/+PQADtSuoshvZBiylyKJGbFSoPBGECbrAZxGbti9EH6
QhLfH3aZmXCyL53dkVXSuP9EWZveU93kBs1RQEgCK5w4EkeKj1d5mbivFaEm0ifT
vMbOrSfyeuY1tNXSBemRtXoHvmetsOZ+uN14Ye59WZKxQ6OpD5/pHOCEBCg6FDez
1HcZjg5BTLq5sQndy/jQn1rbealJY3PEKotFjz/CiGaZTG4FTDIrBL4rpfYGSzAm
9shlRltYs8OOI6Z3lYh2TIAi4jfp5dZlwQ+rKwnOduZSiorf2+HAz/O/nrkhfvyY
bH5J2/zLLfFGZp2DeTHvYxuiEYNi08CCeBcAJejMBeenOfYW4lAKd6XwlKBfrJFW
yfkGNUVe92ORzlPDusuoV4PiNa1maPXEbeB7MekqFs2KYKAKhxIIFNIDoqzWQJp/
nNF648275HPcB6qYVJoKLOug0zkSUMWSFkT15nHP7VmlNWG6wnDBimkkX3JICGXx
q32ErfjRWBip5tYnW379ZHtLLxDvQyDXzaTiSsq3m6xT3/Fy5sEL73wx0RvH8s9B
CXS7nybuvfQxGP/bKaptyvxNVP4x1+rVjpg1LHcLNMk+y2T4tRv5gpieZnnhMC0t
fWvPMx9w6esXOKIks0EHKYemuIHwPUK/xwO1qBWvddtrGgFoC4DD8K6EmlvnKXg9
9qzP76ae8CrE6WOoW0VI3WBR3KFdUxg+ck6vE6Br9Zg4PgkTh7JjwP0IKakBNTJk
ehDdtb2teKUPN6FikZ/v/d4THZRCtViF3YZslcOqliv1EnPQgBsJ5YikYcENkky3
p3oWIyvdJq9YrNYAF+I6hNoQB0acZ7WRxHq1L+6bCqvk7FJV0upOvHo8R+dya6eI
Oj55yGWjVffaBtJ/3lmKJ5K2uwOWfOMijCmCdWHvxiVVkUxK8NMg0E56ydZPUhOx
5ucFKUwRpyKX/fUHtn/1XMkTHvWSl7NC3GMUK9zE+ZaLNezA+1GfMH+gTS07CCxm
D3IfrOhupbGjyFdPVLKrWefBgfrNNLVzr3JkiX+GkTzXdsPqe1hxl9FhTf/7ZrZ1
+Gfstujmsu/Iwj9cKlJohv4rfJ5Izr2MPQxz1i4BVSqnst3fkve9NqzrNMCtrq5U
tnQ29CS4gsiF+A5s/ArtsQxDqjlnk2QNlUWjvVi3e9tQvNic+YUxszbcgu+lnwJ5
fEuHXuUBxs5nBhjB84hPAgMBAAGjaTBnMAkGA1UdEwQCMAAwHQYDVR0OBBYEFC3g
/xCpUwRmxpsxJpJYY6oz3RNQMB8GA1UdIwQYMBaAFECL8juMhKJhMqEpxrzdr4xr
eqH4MBoGA1UdEQQTMBGBD2FkbWluQHFyZWRvLmNvbTANBgkqhkiG9w0BAQsFAAOC
AQEABhRb0CDN66Gy8Lqe2GLBZLOs6ooMVtVvI3t5079ryUK3zfst1EIcuNZmbczl
x/wBDTE0aRYg6h3UeC3cN8FD5uyI5ZZBj21OiuPPD9gx7Ygha7AWhjybDuxEiWMG
CUU4BziNVFefmbE/5LX73YrWX5cRWS458JOFIWYTQt8UqU8iapHuaifFbDAmC9oP
XMJItR/73v/K3X+xu0U3NyQ6+n7nmDy2FZU8kEz30m1ET1cCLFhCJQAgtbqVURKA
LsvL2N97ked/OnuAUmQQRff0o/EIirAA4yb/lks4yHp483J7diej+hzKY4/eNGj2
D4UutrsAUGlxxFPf1beGaYePlA==
-----END CERTIFICATE-----
