Certificate:
    Data:
        Version: 3 (0x2)
        Serial Number:
            b1:7c:fc:ea:a2:27:87:de
        Signature Algorithm: sha256WithRSAEncryption
        Issuer: C=UK, ST=England, O=Qredo Ltd (Test), OU=Dev Unit Test, CN=TestRootCA
        Validity
            Not Before: Dec 14 11:46:04 2015 GMT
            Not After : Dec 11 11:46:04 2025 GMT
        Subject: C=UK, ST=England, O=Qredo Ltd (Test), OU=Dev Unit Test, CN=TestRootCA
        Subject Public Key Info:
            Public Key Algorithm: rsaEncryption
            RSA Public Key: (2048 bit)
                Modulus (2048 bit):
                    00:bb:03:e1:85:f2:fc:02:fa:52:80:af:5e:46:db:
                    df:5a:82:2e:6a:3d:a1:a7:97:8a:f0:eb:bd:8c:01:
                    8e:02:1a:26:2b:be:02:9c:9d:7d:e1:38:18:39:c3:
                    8b:9a:89:90:6c:60:69:bf:96:5d:ce:92:e8:1f:b7:
                    d0:8a:6e:4d:4e:2e:3a:7e:a7:ac:08:f1:47:c6:d7:
                    86:d0:86:aa:83:2e:9f:0e:8b:2e:be:1d:e1:59:24:
                    fb:64:42:d3:9b:f3:f0:4c:2e:a7:89:52:d7:a3:3d:
                    1a:de:4a:c6:69:b2:32:c2:88:2f:43:49:51:0b:28:
                    2e:50:39:a8:75:f9:13:17:d7:19:8c:a7:47:18:d3:
                    55:ff:00:1e:0a:ec:4b:e0:58:d1:11:85:d8:4a:5d:
                    de:80:53:35:05:0c:68:2b:8d:aa:56:e8:93:7f:15:
                    70:18:8f:be:11:fd:16:18:87:8b:95:2f:57:b9:1d:
                    33:1a:dd:b7:15:56:d9:d2:be:95:03:b5:03:ba:24:
                    d9:68:a5:1f:06:78:e0:ca:6a:d4:a9:94:e0:4d:cb:
                    90:e3:8e:be:27:bd:f4:32:7a:59:96:36:13:a6:fc:
                    07:93:be:75:c4:91:89:e6:02:ab:61:bc:fc:5c:77:
                    1d:d3:4a:61:9a:e7:16:a6:2c:d5:46:07:75:b1:6d:
                    86:0d
                Exponent: 65537 (0x10001)
        X509v3 extensions:
            X509v3 Subject Key Identifier: 
                24:E9:3E:16:C6:D1:B6:9C:11:AD:EE:EF:F6:EB:C5:14:0A:E1:50:4E
            X509v3 Authority Key Identifier: 
                keyid:24:E9:3E:16:C6:D1:B6:9C:11:AD:EE:EF:F6:EB:C5:14:0A:E1:50:4E
                DirName:/C=UK/ST=England/O=Qredo Ltd (Test)/OU=Dev Unit Test/CN=TestRootCA
                serial:B1:7C:FC:EA:A2:27:87:DE

            X509v3 Basic Constraints: 
                CA:TRUE
            X509v3 Subject Alternative Name: 
                DNS:qredo.com
    Signature Algorithm: sha256WithRSAEncryption
        9f:14:ba:38:23:d8:a8:1c:ef:e0:7f:90:63:0e:cd:86:04:50:
        da:cb:f1:ad:28:30:a6:f8:36:af:90:90:65:af:d0:b3:4c:46:
        2a:99:52:f6:4e:e8:cb:65:0c:c1:7c:bb:6a:3a:a8:01:95:dc:
        a0:b7:95:05:ea:c5:ca:8f:8d:b0:0b:ce:c3:14:34:ce:89:52:
        17:ce:42:dc:e6:c1:9f:af:80:ff:be:1a:09:a6:36:0a:c7:2c:
        2c:5f:a8:d8:d5:e9:db:72:3c:68:c7:e3:51:cd:7a:4c:48:25:
        a2:32:85:be:80:3e:33:17:cd:ff:af:e5:25:5a:cc:60:5d:22:
        33:74:2d:76:35:5a:8e:b1:2b:f2:ae:58:8e:bb:40:1c:e3:f9:
        04:e5:a9:42:75:5b:66:17:ee:c0:93:d9:c4:93:2c:97:be:2d:
        d4:8c:63:44:f3:ab:e5:34:dd:52:96:6e:f4:52:6f:7c:65:80:
        39:a7:81:1f:73:c1:04:fb:3d:0c:6b:8c:76:0f:db:78:ba:ce:
        70:b0:cc:02:56:a7:1b:bb:6b:31:a3:96:77:d4:a4:28:11:b9:
        80:f4:29:71:a5:2d:77:34:f5:1f:3e:31:4d:fe:32:10:54:42:
        47:f8:3a:e4:e1:15:7b:f7:80:2e:22:fe:32:38:78:2a:87:29:
        d3:7a:db:2f
-----BEGIN CERTIFICATE-----
MIIENDCCAxygAwIBAgIJALF8/OqiJ4feMA0GCSqGSIb3DQEBCwUAMGcxCzAJBgNV
BAYTAlVLMRAwDgYDVQQIEwdFbmdsYW5kMRkwFwYDVQQKExBRcmVkbyBMdGQgKFRl
c3QpMRYwFAYDVQQLEw1EZXYgVW5pdCBUZXN0MRMwEQYDVQQDEwpUZXN0Um9vdENB
MB4XDTE1MTIxNDExNDYwNFoXDTI1MTIxMTExNDYwNFowZzELMAkGA1UEBhMCVUsx
EDAOBgNVBAgTB0VuZ2xhbmQxGTAXBgNVBAoTEFFyZWRvIEx0ZCAoVGVzdCkxFjAU
BgNVBAsTDURldiBVbml0IFRlc3QxEzARBgNVBAMTClRlc3RSb290Q0EwggEiMA0G
CSqGSIb3DQEBAQUAA4IBDwAwggEKAoIBAQC7A+GF8vwC+lKAr15G299agi5qPaGn
l4rw672MAY4CGiYrvgKcnX3hOBg5w4uaiZBsYGm/ll3Okugft9CKbk1OLjp+p6wI
8UfG14bQhqqDLp8Oiy6+HeFZJPtkQtOb8/BMLqeJUtejPRreSsZpsjLCiC9DSVEL
KC5QOah1+RMX1xmMp0cY01X/AB4K7EvgWNERhdhKXd6AUzUFDGgrjapW6JN/FXAY
j74R/RYYh4uVL1e5HTMa3bcVVtnSvpUDtQO6JNlopR8GeODKatSplOBNy5Djjr4n
vfQyelmWNhOm/AeTvnXEkYnmAqthvPxcdx3TSmGa5xamLNVGB3WxbYYNAgMBAAGj
geIwgd8wHQYDVR0OBBYEFCTpPhbG0bacEa3u7/brxRQK4VBOMIGZBgNVHSMEgZEw
gY6AFCTpPhbG0bacEa3u7/brxRQK4VBOoWukaTBnMQswCQYDVQQGEwJVSzEQMA4G
A1UECBMHRW5nbGFuZDEZMBcGA1UEChMQUXJlZG8gTHRkIChUZXN0KTEWMBQGA1UE
CxMNRGV2IFVuaXQgVGVzdDETMBEGA1UEAxMKVGVzdFJvb3RDQYIJALF8/OqiJ4fe
MAwGA1UdEwQFMAMBAf8wFAYDVR0RBA0wC4IJcXJlZG8uY29tMA0GCSqGSIb3DQEB
CwUAA4IBAQCfFLo4I9ioHO/gf5BjDs2GBFDay/GtKDCm+DavkJBlr9CzTEYqmVL2
TujLZQzBfLtqOqgBldygt5UF6sXKj42wC87DFDTOiVIXzkLc5sGfr4D/vhoJpjYK
xywsX6jY1enbcjxox+NRzXpMSCWiMoW+gD4zF83/r+UlWsxgXSIzdC12NVqOsSvy
rliOu0Ac4/kE5alCdVtmF+7Ak9nEkyyXvi3UjGNE86vlNN1Slm70Um98ZYA5p4Ef
c8EE+z0Ma4x2D9t4us5wsMwCVqcbu2sxo5Z31KQoEbmA9ClxpS13NPUfPjFN/jIQ
VEJH+Drk4RV794AuIv4yOHgqhynTetsv
-----END CERTIFICATE-----
Certificate:
    Data:
        Version: 3 (0x2)
        Serial Number:
            b1:7c:fc:ea:a2:27:87:df
        Signature Algorithm: sha256WithRSAEncryption
        Issuer: C=UK, ST=England, O=Qredo Ltd (Test), OU=Dev Unit Test, CN=TestRootCA
        Validity
            Not Before: Dec 14 11:46:04 2015 GMT
            Not After : Dec 13 11:46:04 2018 GMT
        Subject: C=UK, ST=England, L=London, O=Qredo Ltd (Test), OU=Dev Unit Test, CN=TestIntermediateCA-1
        Subject Public Key Info:
            Public Key Algorithm: rsaEncryption
            RSA Public Key: (2048 bit)
                Modulus (2048 bit):
                    00:ad:7a:a9:1f:86:4b:b8:13:18:6e:cb:30:ee:c8:
                    12:1b:ed:2b:71:44:7c:63:da:46:5e:00:d2:92:fe:
                    e9:92:01:53:6a:f3:9c:2e:80:1d:d0:c7:b7:c9:47:
                    21:9c:71:fa:68:02:38:79:c5:91:1a:e4:08:10:71:
                    c8:51:f4:3e:f7:92:60:13:3d:0c:2e:e3:c0:6f:0d:
                    c6:20:68:59:9c:7d:2a:45:4c:c0:a3:68:d9:62:55:
                    f0:9c:9f:00:99:fd:28:85:82:ea:32:85:ac:fa:e7:
                    04:17:23:b4:4b:ad:fd:67:79:f2:89:65:b6:23:d9:
                    57:a7:61:f4:37:96:60:07:1a:95:54:7a:89:cf:31:
                    08:01:2e:03:c9:06:82:a6:fe:88:e8:10:b0:62:03:
                    db:c1:3a:4c:9f:cb:f6:f4:f6:cc:9f:ec:11:02:0d:
                    59:ca:38:c5:48:21:94:7d:75:24:fc:7c:6a:5a:d7:
                    80:9a:80:69:b9:b3:2d:29:86:d0:fc:19:bc:4e:a0:
                    72:e9:04:3d:d9:ba:f6:2d:13:3f:68:3d:99:3b:e6:
                    66:41:78:cd:1c:2b:8f:80:cf:39:e8:4c:64:f9:76:
                    63:91:e3:ee:bb:a6:39:55:ea:6f:78:0d:d1:d6:a0:
                    69:cd:52:90:c8:35:9a:98:9b:da:10:9c:5d:ec:a9:
                    30:13
                Exponent: 65537 (0x10001)
        X509v3 extensions:
            X509v3 Subject Key Identifier: 
                E6:07:E1:77:B0:98:5A:8D:B3:E0:79:F6:D7:73:7B:42:C3:74:27:F1
            X509v3 Authority Key Identifier: 
                keyid:24:E9:3E:16:C6:D1:B6:9C:11:AD:EE:EF:F6:EB:C5:14:0A:E1:50:4E
                DirName:/C=UK/ST=England/O=Qredo Ltd (Test)/OU=Dev Unit Test/CN=TestRootCA
                serial:B1:7C:FC:EA:A2:27:87:DE

            X509v3 Basic Constraints: 
                CA:TRUE
            X509v3 Subject Alternative Name: 
                DNS:qredo.com
    Signature Algorithm: sha256WithRSAEncryption
        39:40:1f:39:43:f7:0c:0a:59:3d:de:40:ed:a6:e9:46:65:6d:
        79:48:3d:64:16:e0:da:69:10:b2:4f:ed:1f:8c:79:24:43:01:
        22:80:5f:53:8b:60:e0:5e:8c:e9:65:76:a5:32:af:87:c0:ef:
        72:36:15:91:65:72:e2:ca:5f:77:ed:7f:4a:16:53:64:1b:45:
        3e:14:32:da:1f:60:31:ca:fa:b9:f7:66:97:a0:53:6f:bb:2f:
        92:ac:89:fd:61:7e:ac:ec:d3:41:a6:9d:e1:6b:03:b2:06:6c:
        82:fe:93:0c:10:0c:46:be:c7:13:c6:f8:69:26:02:1d:ff:49:
        9d:76:13:3c:7c:12:06:77:7c:dc:9a:63:fe:4f:6a:62:90:b9:
        9c:b5:39:a2:1b:88:08:5d:e9:29:eb:c4:17:37:de:c8:fe:63:
        a1:c4:18:01:c8:48:4c:df:cd:75:4a:24:ce:92:d5:7b:36:83:
        7b:b6:f5:4f:dd:cb:1e:73:b3:05:c8:b7:23:57:e2:0f:07:77:
        ac:62:ac:a1:3a:27:9f:49:c5:07:a2:82:00:bf:46:c0:0c:9c:
        39:92:be:ab:17:fd:0e:c9:ce:ce:c9:f1:48:10:af:fc:55:a3:
        0f:7f:85:61:b1:23:ce:7f:19:a7:50:ca:16:cf:46:4c:42:79:
        d9:3e:c3:b8
-----BEGIN CERTIFICATE-----
MIIEUDCCAzigAwIBAgIJALF8/OqiJ4ffMA0GCSqGSIb3DQEBCwUAMGcxCzAJBgNV
BAYTAlVLMRAwDgYDVQQIEwdFbmdsYW5kMRkwFwYDVQQKExBRcmVkbyBMdGQgKFRl
c3QpMRYwFAYDVQQLEw1EZXYgVW5pdCBUZXN0MRMwEQYDVQQDEwpUZXN0Um9vdENB
MB4XDTE1MTIxNDExNDYwNFoXDTE4MTIxMzExNDYwNFowgYIxCzAJBgNVBAYTAlVL
MRAwDgYDVQQIEwdFbmdsYW5kMQ8wDQYDVQQHEwZMb25kb24xGTAXBgNVBAoTEFFy
ZWRvIEx0ZCAoVGVzdCkxFjAUBgNVBAsTDURldiBVbml0IFRlc3QxHTAbBgNVBAMT
FFRlc3RJbnRlcm1lZGlhdGVDQS0xMIIBIjANBgkqhkiG9w0BAQEFAAOCAQ8AMIIB
CgKCAQEArXqpH4ZLuBMYbssw7sgSG+0rcUR8Y9pGXgDSkv7pkgFTavOcLoAd0Me3
yUchnHH6aAI4ecWRGuQIEHHIUfQ+95JgEz0MLuPAbw3GIGhZnH0qRUzAo2jZYlXw
nJ8Amf0ohYLqMoWs+ucEFyO0S639Z3nyiWW2I9lXp2H0N5ZgBxqVVHqJzzEIAS4D
yQaCpv6I6BCwYgPbwTpMn8v29PbMn+wRAg1ZyjjFSCGUfXUk/HxqWteAmoBpubMt
KYbQ/Bm8TqBy6QQ92br2LRM/aD2ZO+ZmQXjNHCuPgM856Exk+XZjkePuu6Y5Vepv
eA3R1qBpzVKQyDWamJvaEJxd7KkwEwIDAQABo4HiMIHfMB0GA1UdDgQWBBTmB+F3
sJhajbPgefbXc3tCw3Qn8TCBmQYDVR0jBIGRMIGOgBQk6T4WxtG2nBGt7u/268UU
CuFQTqFrpGkwZzELMAkGA1UEBhMCVUsxEDAOBgNVBAgTB0VuZ2xhbmQxGTAXBgNV
BAoTEFFyZWRvIEx0ZCAoVGVzdCkxFjAUBgNVBAsTDURldiBVbml0IFRlc3QxEzAR
BgNVBAMTClRlc3RSb290Q0GCCQCxfPzqoieH3jAMBgNVHRMEBTADAQH/MBQGA1Ud
EQQNMAuCCXFyZWRvLmNvbTANBgkqhkiG9w0BAQsFAAOCAQEAOUAfOUP3DApZPd5A
7abpRmVteUg9ZBbg2mkQsk/tH4x5JEMBIoBfU4tg4F6M6WV2pTKvh8DvcjYVkWVy
4spfd+1/ShZTZBtFPhQy2h9gMcr6ufdml6BTb7svkqyJ/WF+rOzTQaad4WsDsgZs
gv6TDBAMRr7HE8b4aSYCHf9JnXYTPHwSBnd83Jpj/k9qYpC5nLU5ohuICF3pKevE
FzfeyP5jocQYAchITN/NdUokzpLVezaDe7b1T93LHnOzBci3I1fiDwd3rGKsoTon
n0nFB6KCAL9GwAycOZK+qxf9DsnOzsnxSBCv/FWjD3+FYbEjzn8Zp1DKFs9GTEJ5
2T7DuA==
-----END CERTIFICATE-----
-----BEGIN X509 CRL-----
MIIB+jCB4wIBATANBgkqhkiG9w0BAQsFADBnMQswCQYDVQQGEwJVSzEQMA4GA1UE
CBMHRW5nbGFuZDEZMBcGA1UEChMQUXJlZG8gTHRkIChUZXN0KTEWMBQGA1UECxMN
RGV2IFVuaXQgVGVzdDETMBEGA1UEAxMKVGVzdFJvb3RDQRcNMTUxMjE0MTE0NjI3
WhcNMTYwMTEzMTE0NjI3WjA4MBoCCQCxfPzqoieH4BcNMTUxMjE0MTE0NjI3WjAa
AgkAsXz86qInh+UXDTE1MTIxNDExNDYyN1qgDjAMMAoGA1UdFAQDAgEEMA0GCSqG
SIb3DQEBCwUAA4IBAQCbrlUPaauDBZ28PmnsjBkaZqGGdaOf8netlkZc+EZHzoC4
mmcXQpWUmE/F+PWqj10Tu+vN+W95D0bhB/R4+6mbluUVo5FK7VNvFhazNKYDBoZ9
vhr16djpU+5EoFoJMLE5rDnUafmlj/OTn188hJWRppTgqhViyuMlPYio6cbriX94
BwEj3fPfEstqAO3vQV6Zj51xrcla8B6HB9jI/XkaZsegcRVQoM8fnf3+tK13LT1N
N2TF7YuNvch+fPzFhtfZD5zLXLuM9mCfmKbKMGunh7i3jENm/SED3O6F4NDdcrhp
hrzFZHOCLWjcCP7R48rN6JDNyucWUSePDWYpXrQe
-----END X509 CRL-----
-----BEGIN X509 CRL-----
MIICFjCB/wIBATANBgkqhkiG9w0BAQsFADCBgjELMAkGA1UEBhMCVUsxEDAOBgNV
BAgTB0VuZ2xhbmQxDzANBgNVBAcTBkxvbmRvbjEZMBcGA1UEChMQUXJlZG8gTHRk
IChUZXN0KTEWMBQGA1UECxMNRGV2IFVuaXQgVGVzdDEdMBsGA1UEAxMUVGVzdElu
dGVybWVkaWF0ZUNBLTEXDTE1MTIxNDExNDYyN1oXDTE2MDExMzExNDYyN1owODAa
AgkAsXz86qInh+AXDTE1MTIxNDExNDYyN1owGgIJALF8/OqiJ4flFw0xNTEyMTQx
MTQ2MjdaoA4wDDAKBgNVHRQEAwIBBTANBgkqhkiG9w0BAQsFAAOCAQEAOexgUXTy
ku8EbCYq3+yqklDDEhYO+HWwFszCD80hah7F8xvvx02kiKOKAOHLuiYgu02i6zNc
iaie3VzdF18dvAExahKh8kj1M9OMZCTTKbqCq3vFVGym7WnYJky/J4Qf4vr/0jyr
LdzwUgaCaD/YsphsMv1z09r0A7NbSW9wm7VCrPVffyqzc/kgYx75JpkJQkT4YOr9
COzXVvh1kkkleSXc6/UgIetM9rpymg0218eAlvpxQzGOMJ4OdXRaRLFA3CXsXfPu
+aTay6OAB7w5rNF8Npj5Qm1uidWbp1e66INOXyWnz8IQWub/qMMXeunITkB0XeAQ
rPt5cXrnprrMHw==
-----END X509 CRL-----
