Certificate:
    Data:
        Version: 3 (0x2)
        Serial Number:
            b1:7c:fc:ea:a2:27:87:de
        Signature Algorithm: sha256WithRSAEncryption
        Issuer: C=UK, ST=England, O=Qredo Ltd (Test), OU=Dev Unit Test, CN=TestRootCA
        Validity
            Not Before: Dec 14 11:46:04 2015 GMT
            Not After : Dec 11 11:46:04 2025 GMT
        Subject: C=UK, ST=England, O=Qredo Ltd (Test), OU=Dev Unit Test, CN=TestRootCA
        Subject Public Key Info:
            Public Key Algorithm: rsaEncryption
            RSA Public Key: (2048 bit)
                Modulus (2048 bit):
                    00:bb:03:e1:85:f2:fc:02:fa:52:80:af:5e:46:db:
                    df:5a:82:2e:6a:3d:a1:a7:97:8a:f0:eb:bd:8c:01:
                    8e:02:1a:26:2b:be:02:9c:9d:7d:e1:38:18:39:c3:
                    8b:9a:89:90:6c:60:69:bf:96:5d:ce:92:e8:1f:b7:
                    d0:8a:6e:4d:4e:2e:3a:7e:a7:ac:08:f1:47:c6:d7:
                    86:d0:86:aa:83:2e:9f:0e:8b:2e:be:1d:e1:59:24:
                    fb:64:42:d3:9b:f3:f0:4c:2e:a7:89:52:d7:a3:3d:
                    1a:de:4a:c6:69:b2:32:c2:88:2f:43:49:51:0b:28:
                    2e:50:39:a8:75:f9:13:17:d7:19:8c:a7:47:18:d3:
                    55:ff:00:1e:0a:ec:4b:e0:58:d1:11:85:d8:4a:5d:
                    de:80:53:35:05:0c:68:2b:8d:aa:56:e8:93:7f:15:
                    70:18:8f:be:11:fd:16:18:87:8b:95:2f:57:b9:1d:
                    33:1a:dd:b7:15:56:d9:d2:be:95:03:b5:03:ba:24:
                    d9:68:a5:1f:06:78:e0:ca:6a:d4:a9:94:e0:4d:cb:
                    90:e3:8e:be:27:bd:f4:32:7a:59:96:36:13:a6:fc:
                    07:93:be:75:c4:91:89:e6:02:ab:61:bc:fc:5c:77:
                    1d:d3:4a:61:9a:e7:16:a6:2c:d5:46:07:75:b1:6d:
                    86:0d
                Exponent: 65537 (0x10001)
        X509v3 extensions:
            X509v3 Subject Key Identifier: 
                24:E9:3E:16:C6:D1:B6:9C:11:AD:EE:EF:F6:EB:C5:14:0A:E1:50:4E
            X509v3 Authority Key Identifier: 
                keyid:24:E9:3E:16:C6:D1:B6:9C:11:AD:EE:EF:F6:EB:C5:14:0A:E1:50:4E
                DirName:/C=UK/ST=England/O=Qredo Ltd (Test)/OU=Dev Unit Test/CN=TestRootCA
                serial:B1:7C:FC:EA:A2:27:87:DE

            X509v3 Basic Constraints: 
                CA:TRUE
            X509v3 Subject Alternative Name: 
                DNS:qredo.com
    Signature Algorithm: sha256WithRSAEncryption
        9f:14:ba:38:23:d8:a8:1c:ef:e0:7f:90:63:0e:cd:86:04:50:
        da:cb:f1:ad:28:30:a6:f8:36:af:90:90:65:af:d0:b3:4c:46:
        2a:99:52:f6:4e:e8:cb:65:0c:c1:7c:bb:6a:3a:a8:01:95:dc:
        a0:b7:95:05:ea:c5:ca:8f:8d:b0:0b:ce:c3:14:34:ce:89:52:
        17:ce:42:dc:e6:c1:9f:af:80:ff:be:1a:09:a6:36:0a:c7:2c:
        2c:5f:a8:d8:d5:e9:db:72:3c:68:c7:e3:51:cd:7a:4c:48:25:
        a2:32:85:be:80:3e:33:17:cd:ff:af:e5:25:5a:cc:60:5d:22:
        33:74:2d:76:35:5a:8e:b1:2b:f2:ae:58:8e:bb:40:1c:e3:f9:
        04:e5:a9:42:75:5b:66:17:ee:c0:93:d9:c4:93:2c:97:be:2d:
        d4:8c:63:44:f3:ab:e5:34:dd:52:96:6e:f4:52:6f:7c:65:80:
        39:a7:81:1f:73:c1:04:fb:3d:0c:6b:8c:76:0f:db:78:ba:ce:
        70:b0:cc:02:56:a7:1b:bb:6b:31:a3:96:77:d4:a4:28:11:b9:
        80:f4:29:71:a5:2d:77:34:f5:1f:3e:31:4d:fe:32:10:54:42:
        47:f8:3a:e4:e1:15:7b:f7:80:2e:22:fe:32:38:78:2a:87:29:
        d3:7a:db:2f
-----BEGIN CERTIFICATE-----
MIIENDCCAxygAwIBAgIJALF8/OqiJ4feMA0GCSqGSIb3DQEBCwUAMGcxCzAJBgNV
BAYTAlVLMRAwDgYDVQQIEwdFbmdsYW5kMRkwFwYDVQQKExBRcmVkbyBMdGQgKFRl
c3QpMRYwFAYDVQQLEw1EZXYgVW5pdCBUZXN0MRMwEQYDVQQDEwpUZXN0Um9vdENB
MB4XDTE1MTIxNDExNDYwNFoXDTI1MTIxMTExNDYwNFowZzELMAkGA1UEBhMCVUsx
EDAOBgNVBAgTB0VuZ2xhbmQxGTAXBgNVBAoTEFFyZWRvIEx0ZCAoVGVzdCkxFjAU
BgNVBAsTDURldiBVbml0IFRlc3QxEzARBgNVBAMTClRlc3RSb290Q0EwggEiMA0G
CSqGSIb3DQEBAQUAA4IBDwAwggEKAoIBAQC7A+GF8vwC+lKAr15G299agi5qPaGn
l4rw672MAY4CGiYrvgKcnX3hOBg5w4uaiZBsYGm/ll3Okugft9CKbk1OLjp+p6wI
8UfG14bQhqqDLp8Oiy6+HeFZJPtkQtOb8/BMLqeJUtejPRreSsZpsjLCiC9DSVEL
KC5QOah1+RMX1xmMp0cY01X/AB4K7EvgWNERhdhKXd6AUzUFDGgrjapW6JN/FXAY
j74R/RYYh4uVL1e5HTMa3bcVVtnSvpUDtQO6JNlopR8GeODKatSplOBNy5Djjr4n
vfQyelmWNhOm/AeTvnXEkYnmAqthvPxcdx3TSmGa5xamLNVGB3WxbYYNAgMBAAGj
geIwgd8wHQYDVR0OBBYEFCTpPhbG0bacEa3u7/brxRQK4VBOMIGZBgNVHSMEgZEw
gY6AFCTpPhbG0bacEa3u7/brxRQK4VBOoWukaTBnMQswCQYDVQQGEwJVSzEQMA4G
A1UECBMHRW5nbGFuZDEZMBcGA1UEChMQUXJlZG8gTHRkIChUZXN0KTEWMBQGA1UE
CxMNRGV2IFVuaXQgVGVzdDETMBEGA1UEAxMKVGVzdFJvb3RDQYIJALF8/OqiJ4fe
MAwGA1UdEwQFMAMBAf8wFAYDVR0RBA0wC4IJcXJlZG8uY29tMA0GCSqGSIb3DQEB
CwUAA4IBAQCfFLo4I9ioHO/gf5BjDs2GBFDay/GtKDCm+DavkJBlr9CzTEYqmVL2
TujLZQzBfLtqOqgBldygt5UF6sXKj42wC87DFDTOiVIXzkLc5sGfr4D/vhoJpjYK
xywsX6jY1enbcjxox+NRzXpMSCWiMoW+gD4zF83/r+UlWsxgXSIzdC12NVqOsSvy
rliOu0Ac4/kE5alCdVtmF+7Ak9nEkyyXvi3UjGNE86vlNN1Slm70Um98ZYA5p4Ef
c8EE+z0Ma4x2D9t4us5wsMwCVqcbu2sxo5Z31KQoEbmA9ClxpS13NPUfPjFN/jIQ
VEJH+Drk4RV794AuIv4yOHgqhynTetsv
-----END CERTIFICATE-----
Certificate:
    Data:
        Version: 3 (0x2)
        Serial Number:
            b1:7c:fc:ea:a2:27:87:e0
        Signature Algorithm: sha256WithRSAEncryption
        Issuer: C=UK, ST=England, O=Qredo Ltd (Test), OU=Dev Unit Test, CN=TestRootCA
        Validity
            Not Before: Dec 14 11:46:05 2015 GMT
            Not After : Dec 13 11:46:05 2018 GMT
        Subject: C=UK, ST=England, L=London, O=Qredo Ltd (Test), OU=Dev Unit Test, CN=TestIntermediateCA-2
        Subject Public Key Info:
            Public Key Algorithm: rsaEncryption
            RSA Public Key: (2048 bit)
                Modulus (2048 bit):
                    00:ad:d1:f7:b9:01:de:c7:f2:c2:bb:63:36:85:e6:
                    8f:58:8a:51:28:d2:74:1f:94:05:48:4b:4e:69:75:
                    03:96:6c:1c:a9:52:d4:5d:f6:05:3a:93:86:ce:b4:
                    30:8f:f1:19:ba:0c:fd:6c:bf:c1:ea:ff:00:a3:d9:
                    b3:27:4e:4d:8b:b5:9f:0f:0b:64:f1:2d:6a:77:f8:
                    29:0e:48:74:61:3c:48:c6:3f:a1:c5:a2:54:5b:68:
                    36:23:5a:16:1f:ec:f8:55:2c:03:98:61:9c:0a:a4:
                    80:df:99:8a:2f:03:c4:ef:8c:21:87:4b:4a:cf:90:
                    0b:fd:0c:36:b9:73:66:63:fe:8e:02:f4:f6:73:e2:
                    85:8b:32:98:0a:16:e4:24:47:f5:06:51:70:13:ae:
                    67:9d:08:bb:28:27:6a:65:9f:41:00:c1:11:29:51:
                    ec:39:69:b0:5a:53:1f:1d:90:e0:c1:6a:98:58:5c:
                    ac:58:c2:4e:ef:e7:3b:68:d4:9b:a5:92:24:50:63:
                    e3:bc:16:7b:40:71:f7:d7:47:5e:0b:2a:d9:ac:e6:
                    26:41:fc:42:1f:44:9f:b1:1a:3b:35:7b:f8:5e:fa:
                    f5:f8:64:00:39:24:95:07:e6:f4:68:9b:1a:f2:94:
                    02:72:b0:95:79:25:8e:e2:31:9a:66:99:0d:06:31:
                    d2:1f
                Exponent: 65537 (0x10001)
        X509v3 extensions:
            X509v3 Subject Key Identifier: 
                9F:9F:E2:92:5B:2C:08:3F:8D:7D:56:52:CB:AE:AE:D8:F0:3D:3D:36
            X509v3 Authority Key Identifier: 
                keyid:24:E9:3E:16:C6:D1:B6:9C:11:AD:EE:EF:F6:EB:C5:14:0A:E1:50:4E
                DirName:/C=UK/ST=England/O=Qredo Ltd (Test)/OU=Dev Unit Test/CN=TestRootCA
                serial:B1:7C:FC:EA:A2:27:87:DE

            X509v3 Basic Constraints: 
                CA:TRUE
            X509v3 Subject Alternative Name: 
                DNS:qredo.com
    Signature Algorithm: sha256WithRSAEncryption
        4b:81:8d:0a:0e:4c:01:28:cb:b8:fb:4d:7b:9f:b5:2e:8a:5a:
        d4:18:d4:96:5d:93:76:14:14:e7:46:59:43:5e:3b:c8:32:d1:
        2a:fe:e9:23:c2:bb:39:8b:3f:02:46:40:27:08:eb:95:0b:1c:
        82:f1:5c:ac:24:75:6e:5e:b5:79:9d:8f:39:c1:55:6c:af:f8:
        c8:80:e4:06:4f:44:2d:1a:a9:bb:30:6c:97:18:09:d4:24:22:
        12:7c:b6:8a:bf:cb:0d:df:24:00:1a:c1:0a:f5:04:fd:8a:e1:
        01:a8:13:73:48:65:90:25:f2:16:36:20:59:6f:f4:7d:3f:9a:
        42:88:7b:c5:8a:a8:ad:20:86:02:30:f6:c9:9a:b1:8b:a7:3d:
        58:8b:55:87:b2:6f:02:b6:01:4b:65:8c:af:ec:79:22:36:31:
        ea:84:4e:8b:74:a3:b2:e0:4c:46:3a:6a:d5:a7:f6:a7:18:f8:
        94:63:0e:9c:5f:30:b2:87:db:66:72:64:ef:b2:67:84:3d:25:
        0e:35:ac:9d:ff:54:8b:d1:c9:ab:a5:1f:0c:56:93:db:47:40:
        70:59:a6:19:aa:2e:ec:65:8f:5d:9d:17:e2:98:18:10:c0:ae:
        d0:bf:43:a6:9b:28:f9:5d:19:fd:c4:6e:57:19:0e:38:83:f6:
        07:8c:fb:bd
-----BEGIN CERTIFICATE-----
MIIEUDCCAzigAwIBAgIJALF8/OqiJ4fgMA0GCSqGSIb3DQEBCwUAMGcxCzAJBgNV
BAYTAlVLMRAwDgYDVQQIEwdFbmdsYW5kMRkwFwYDVQQKExBRcmVkbyBMdGQgKFRl
c3QpMRYwFAYDVQQLEw1EZXYgVW5pdCBUZXN0MRMwEQYDVQQDEwpUZXN0Um9vdENB
MB4XDTE1MTIxNDExNDYwNVoXDTE4MTIxMzExNDYwNVowgYIxCzAJBgNVBAYTAlVL
MRAwDgYDVQQIEwdFbmdsYW5kMQ8wDQYDVQQHEwZMb25kb24xGTAXBgNVBAoTEFFy
ZWRvIEx0ZCAoVGVzdCkxFjAUBgNVBAsTDURldiBVbml0IFRlc3QxHTAbBgNVBAMT
FFRlc3RJbnRlcm1lZGlhdGVDQS0yMIIBIjANBgkqhkiG9w0BAQEFAAOCAQ8AMIIB
CgKCAQEArdH3uQHex/LCu2M2heaPWIpRKNJ0H5QFSEtOaXUDlmwcqVLUXfYFOpOG
zrQwj/EZugz9bL/B6v8Ao9mzJ05Ni7WfDwtk8S1qd/gpDkh0YTxIxj+hxaJUW2g2
I1oWH+z4VSwDmGGcCqSA35mKLwPE74whh0tKz5AL/Qw2uXNmY/6OAvT2c+KFizKY
ChbkJEf1BlFwE65nnQi7KCdqZZ9BAMERKVHsOWmwWlMfHZDgwWqYWFysWMJO7+c7
aNSbpZIkUGPjvBZ7QHH310deCyrZrOYmQfxCH0SfsRo7NXv4Xvr1+GQAOSSVB+b0
aJsa8pQCcrCVeSWO4jGaZpkNBjHSHwIDAQABo4HiMIHfMB0GA1UdDgQWBBSfn+KS
WywIP419VlLLrq7Y8D09NjCBmQYDVR0jBIGRMIGOgBQk6T4WxtG2nBGt7u/268UU
CuFQTqFrpGkwZzELMAkGA1UEBhMCVUsxEDAOBgNVBAgTB0VuZ2xhbmQxGTAXBgNV
BAoTEFFyZWRvIEx0ZCAoVGVzdCkxFjAUBgNVBAsTDURldiBVbml0IFRlc3QxEzAR
BgNVBAMTClRlc3RSb290Q0GCCQCxfPzqoieH3jAMBgNVHRMEBTADAQH/MBQGA1Ud
EQQNMAuCCXFyZWRvLmNvbTANBgkqhkiG9w0BAQsFAAOCAQEAS4GNCg5MASjLuPtN
e5+1Lopa1BjUll2TdhQU50ZZQ147yDLRKv7pI8K7OYs/AkZAJwjrlQscgvFcrCR1
bl61eZ2POcFVbK/4yIDkBk9ELRqpuzBslxgJ1CQiEny2ir/LDd8kABrBCvUE/Yrh
AagTc0hlkCXyFjYgWW/0fT+aQoh7xYqorSCGAjD2yZqxi6c9WItVh7JvArYBS2WM
r+x5IjYx6oROi3SjsuBMRjpq1af2pxj4lGMOnF8wsofbZnJk77JnhD0lDjWsnf9U
i9HJq6UfDFaT20dAcFmmGaou7GWPXZ0X4pgYEMCu0L9Dppso+V0Z/cRuVxkOOIP2
B4z7vQ==
-----END CERTIFICATE-----
-----BEGIN X509 CRL-----
MIIB+jCB4wIBATANBgkqhkiG9w0BAQsFADBnMQswCQYDVQQGEwJVSzEQMA4GA1UE
CBMHRW5nbGFuZDEZMBcGA1UEChMQUXJlZG8gTHRkIChUZXN0KTEWMBQGA1UECxMN
RGV2IFVuaXQgVGVzdDETMBEGA1UEAxMKVGVzdFJvb3RDQRcNMTUxMjE0MTE0NjI3
WhcNMTYwMTEzMTE0NjI3WjA4MBoCCQCxfPzqoieH4BcNMTUxMjE0MTE0NjI3WjAa
AgkAsXz86qInh+UXDTE1MTIxNDExNDYyN1qgDjAMMAoGA1UdFAQDAgEEMA0GCSqG
SIb3DQEBCwUAA4IBAQCbrlUPaauDBZ28PmnsjBkaZqGGdaOf8netlkZc+EZHzoC4
mmcXQpWUmE/F+PWqj10Tu+vN+W95D0bhB/R4+6mbluUVo5FK7VNvFhazNKYDBoZ9
vhr16djpU+5EoFoJMLE5rDnUafmlj/OTn188hJWRppTgqhViyuMlPYio6cbriX94
BwEj3fPfEstqAO3vQV6Zj51xrcla8B6HB9jI/XkaZsegcRVQoM8fnf3+tK13LT1N
N2TF7YuNvch+fPzFhtfZD5zLXLuM9mCfmKbKMGunh7i3jENm/SED3O6F4NDdcrhp
hrzFZHOCLWjcCP7R48rN6JDNyucWUSePDWYpXrQe
-----END X509 CRL-----
-----BEGIN X509 CRL-----
MIICFjCB/wIBATANBgkqhkiG9w0BAQsFADCBgjELMAkGA1UEBhMCVUsxEDAOBgNV
BAgTB0VuZ2xhbmQxDzANBgNVBAcTBkxvbmRvbjEZMBcGA1UEChMQUXJlZG8gTHRk
IChUZXN0KTEWMBQGA1UECxMNRGV2IFVuaXQgVGVzdDEdMBsGA1UEAxMUVGVzdElu
dGVybWVkaWF0ZUNBLTIXDTE1MTIxNDExNDYyN1oXDTE2MDExMzExNDYyN1owODAa
AgkAsXz86qInh+AXDTE1MTIxNDExNDYyN1owGgIJALF8/OqiJ4flFw0xNTEyMTQx
MTQ2MjdaoA4wDDAKBgNVHRQEAwIBBjANBgkqhkiG9w0BAQsFAAOCAQEAButvpqW/
poWeKg7jhoRUWq7pS8lrsffsKPcU4Ay3y6n76GiyCVpkvxVi91VVz8vXpEadxDez
qaE3XrNGbI8ssVqB+TFWR56I4ASOCffhvSDdlOcBJU+jk7gWSinx8erYSpaI5PA7
OoEnCqiKfqQZa6JubaJmf4HPuho7pC0yWk1uVuQxdtbj0YNYb96xhzws/DBvZy29
FKJEVfZTkkOvJiMmJFOrWKqASbk7sRvOVIK9e4EONvvMEylNomFqeSefOM2h6vsF
Z7DmHd09WQKyB4uVbdC2mxaDCba3a3DXR/jH415xss7vz0YE5+VYl6O8iXIgQwf9
oLjIoQ3Hzdyz8w==
-----END X509 CRL-----
