Certificate:
    Data:
        Version: 3 (0x2)
        Serial Number:
            b1:7c:fc:ea:a2:27:87:e2
        Signature Algorithm: sha256WithRSAEncryption
        Issuer: C=UK, ST=England, L=London, O=Qredo Ltd (Test), OU=Dev Unit Test, CN=TestIntermediateCA-1
        Validity
            Not Before: Dec 14 11:46:05 2015 GMT
            Not After : Dec 13 11:46:05 2018 GMT
        Subject: C=UK, ST=England, L=London, O=Qredo Ltd (Test), OU=Dev Unit Test, CN=TestCert2 using Intermediate CA 1
        Subject Public Key Info:
            Public Key Algorithm: rsaEncryption
            RSA Public Key: (2048 bit)
                Modulus (2048 bit):
                    00:d2:39:5a:4f:06:07:fb:f0:0b:c5:7c:de:a8:5f:
                    09:5c:9a:7f:a9:a4:65:3c:64:a3:8c:54:4d:a2:6c:
                    ff:05:71:a7:f5:f9:bf:59:d0:f0:32:1a:65:fb:8a:
                    22:d1:9c:d3:99:55:e5:f5:83:a9:b5:6c:4a:98:81:
                    92:e3:7b:0c:a2:7a:26:10:86:6a:07:27:5f:53:c8:
                    7d:60:6d:85:ff:1c:e4:21:01:94:28:3d:fd:6e:09:
                    98:95:ea:3b:72:90:8b:88:0c:f7:52:df:45:55:46:
                    13:1e:5d:2b:77:a9:6d:1d:a5:52:16:54:30:c2:67:
                    bd:50:5f:4c:f3:4e:00:e9:39:75:79:f9:6b:c0:83:
                    f0:2d:f6:b7:3b:74:da:01:b5:85:f9:b6:26:cc:46:
                    16:34:cf:2e:7b:74:cf:31:e6:4f:f7:9f:a8:60:40:
                    04:66:f2:10:bc:5b:8a:ff:f9:a0:16:c6:01:69:2c:
                    dd:84:c1:84:bf:50:9a:eb:4b:cd:04:a1:67:97:e9:
                    ed:76:a6:cd:97:42:cb:2c:0f:a6:35:b4:f8:99:3b:
                    f1:0c:af:e7:f1:a7:5b:30:e9:2e:cb:dd:be:e6:dd:
                    16:0b:aa:30:08:fc:f1:41:66:94:4b:5e:8a:ea:57:
                    c4:b0:10:dd:79:ac:10:ae:90:eb:79:1c:fa:6f:eb:
                    2b:43
                Exponent: 65537 (0x10001)
        X509v3 extensions:
            X509v3 Basic Constraints: 
                CA:FALSE
            X509v3 Subject Key Identifier: 
                AB:EA:66:A9:FD:1D:49:68:89:AA:1E:8C:7C:C9:D1:A5:C7:E2:4B:58
            X509v3 Authority Key Identifier: 
                keyid:E6:07:E1:77:B0:98:5A:8D:B3:E0:79:F6:D7:73:7B:42:C3:74:27:F1

            X509v3 Subject Alternative Name: 
                email:admin@qredo.com
    Signature Algorithm: sha256WithRSAEncryption
        ac:18:ca:dc:ff:2d:f3:2a:67:64:24:25:41:11:25:75:26:7f:
        4f:dd:02:ae:65:f5:16:a7:4a:b0:c8:33:1d:34:3a:32:d3:d2:
        b2:99:3e:a3:cb:49:3d:1b:7e:60:30:3a:7b:1a:cf:be:be:13:
        11:46:ef:82:20:91:de:5a:ff:3c:6d:86:29:5f:3d:21:8b:21:
        dc:86:d1:26:fa:f0:fa:0d:cc:1a:59:91:db:f0:75:38:25:a1:
        10:4e:00:0e:e3:78:69:01:04:15:71:da:b2:8b:69:aa:c6:d1:
        2e:69:7d:19:80:9e:dd:34:fd:89:ab:ed:1e:53:bc:f1:bd:d6:
        44:e3:47:42:f7:03:8b:31:9e:7b:33:6f:d1:eb:9f:4e:fb:69:
        86:62:98:de:5a:52:10:bc:59:2c:99:06:af:85:9d:0e:6f:3c:
        1b:a1:a3:0f:29:de:0c:47:7c:8e:0f:83:28:d0:42:34:e7:c3:
        04:4e:9d:75:72:3a:90:42:93:c5:92:f3:22:5e:69:f7:0c:7d:
        23:38:4e:75:b3:8b:15:46:ef:63:48:28:ae:50:35:f2:fd:b1:
        41:83:8c:c7:8a:0d:d6:45:1f:ea:49:5f:78:17:c6:b8:5c:ae:
        9a:d4:ba:88:4f:15:78:27:9c:3f:a8:96:cc:e3:fd:22:90:7f:
        4b:9a:8f:a9
-----BEGIN CERTIFICATE-----
MIID/zCCAuegAwIBAgIJALF8/OqiJ4fiMA0GCSqGSIb3DQEBCwUAMIGCMQswCQYD
VQQGEwJVSzEQMA4GA1UECBMHRW5nbGFuZDEPMA0GA1UEBxMGTG9uZG9uMRkwFwYD
VQQKExBRcmVkbyBMdGQgKFRlc3QpMRYwFAYDVQQLEw1EZXYgVW5pdCBUZXN0MR0w
GwYDVQQDExRUZXN0SW50ZXJtZWRpYXRlQ0EtMTAeFw0xNTEyMTQxMTQ2MDVaFw0x
ODEyMTMxMTQ2MDVaMIGPMQswCQYDVQQGEwJVSzEQMA4GA1UECBMHRW5nbGFuZDEP
MA0GA1UEBxMGTG9uZG9uMRkwFwYDVQQKExBRcmVkbyBMdGQgKFRlc3QpMRYwFAYD
VQQLEw1EZXYgVW5pdCBUZXN0MSowKAYDVQQDEyFUZXN0Q2VydDIgdXNpbmcgSW50
ZXJtZWRpYXRlIENBIDEwggEiMA0GCSqGSIb3DQEBAQUAA4IBDwAwggEKAoIBAQDS
OVpPBgf78AvFfN6oXwlcmn+ppGU8ZKOMVE2ibP8Fcaf1+b9Z0PAyGmX7iiLRnNOZ
VeX1g6m1bEqYgZLjewyieiYQhmoHJ19TyH1gbYX/HOQhAZQoPf1uCZiV6jtykIuI
DPdS30VVRhMeXSt3qW0dpVIWVDDCZ71QX0zzTgDpOXV5+WvAg/At9rc7dNoBtYX5
tibMRhY0zy57dM8x5k/3n6hgQARm8hC8W4r/+aAWxgFpLN2EwYS/UJrrS80EoWeX
6e12ps2XQsssD6Y1tPiZO/EMr+fxp1sw6S7L3b7m3RYLqjAI/PFBZpRLXorqV8Sw
EN15rBCukOt5HPpv6ytDAgMBAAGjaTBnMAkGA1UdEwQCMAAwHQYDVR0OBBYEFKvq
Zqn9HUloiaoejHzJ0aXH4ktYMB8GA1UdIwQYMBaAFOYH4XewmFqNs+B59tdze0LD
dCfxMBoGA1UdEQQTMBGBD2FkbWluQHFyZWRvLmNvbTANBgkqhkiG9w0BAQsFAAOC
AQEArBjK3P8t8ypnZCQlQREldSZ/T90CrmX1FqdKsMgzHTQ6MtPSspk+o8tJPRt+
YDA6exrPvr4TEUbvgiCR3lr/PG2GKV89IYsh3IbRJvrw+g3MGlmR2/B1OCWhEE4A
DuN4aQEEFXHasotpqsbRLml9GYCe3TT9iavtHlO88b3WRONHQvcDizGeezNv0euf
TvtphmKY3lpSELxZLJkGr4WdDm88G6GjDyneDEd8jg+DKNBCNOfDBE6ddXI6kEKT
xZLzIl5p9wx9IzhOdbOLFUbvY0gorlA18v2xQYOMx4oN1kUf6klfeBfGuFyumtS6
iE8VeCecP6iWzOP9IpB/S5qPqQ==
-----END CERTIFICATE-----
