Certificate:
    Data:
        Version: 3 (0x2)
        Serial Number:
            b1:7c:fc:ea:a2:27:87:e1
        Signature Algorithm: sha256WithRSAEncryption
        Issuer: C=UK, ST=England, L=London, O=Qredo Ltd (Test), OU=Dev Unit Test, CN=TestIntermediateCA-1
        Validity
            Not Before: Dec 14 11:46:05 2015 GMT
            Not After : Dec 13 11:46:05 2018 GMT
        Subject: C=UK, ST=England, L=London, O=Qredo Ltd (Test), OU=Dev Unit Test, CN=TestCert1 using Intermediate CA 1
        Subject Public Key Info:
            Public Key Algorithm: rsaEncryption
            RSA Public Key: (1024 bit)
                Modulus (1024 bit):
                    00:ba:db:0d:2e:34:7e:ab:88:99:a4:be:b5:02:a0:
                    5c:53:88:55:16:14:a4:59:32:cc:b1:5d:5b:d1:59:
                    11:7d:ed:dc:2d:a0:6d:94:59:33:6b:52:ef:fa:c0:
                    5c:08:93:2c:47:79:a3:f1:f9:60:94:9f:08:1f:6a:
                    86:0a:8f:50:a5:58:d7:0e:9a:4b:77:c2:42:d5:de:
                    5f:e6:49:90:e9:55:87:8d:08:c1:f9:36:90:94:3f:
                    35:76:92:87:07:62:05:0e:ef:8a:8d:09:c7:d1:a4:
                    c2:70:4f:e6:01:18:87:12:78:21:c9:c0:b3:6e:17:
                    24:dd:e9:a1:3c:0d:20:78:c3
                Exponent: 65537 (0x10001)
        X509v3 extensions:
            X509v3 Basic Constraints: 
                CA:FALSE
            X509v3 Subject Key Identifier: 
                29:A6:A0:6D:B6:F9:E8:CD:CD:03:6C:0F:02:16:BA:82:62:31:E0:41
            X509v3 Authority Key Identifier: 
                keyid:E6:07:E1:77:B0:98:5A:8D:B3:E0:79:F6:D7:73:7B:42:C3:74:27:F1

            X509v3 Subject Alternative Name: 
                email:admin@qredo.com
    Signature Algorithm: sha256WithRSAEncryption
        22:62:81:44:43:52:64:fc:d8:fd:08:40:eb:0b:b7:c8:68:a6:
        89:d5:9f:e7:8f:ab:55:3a:48:48:65:96:74:89:89:ab:77:60:
        ee:c8:3d:e0:ea:a2:77:b1:e3:98:2e:79:c8:2d:03:88:47:a7:
        ac:81:c2:3e:b3:5b:83:9d:10:46:40:4f:be:7c:81:75:51:5f:
        f3:15:67:31:71:ad:e6:b1:fa:46:61:d3:3f:aa:4b:1d:41:b0:
        6c:a2:97:5e:87:44:d3:5e:8f:ab:46:af:eb:ab:6f:29:1d:56:
        ba:26:a5:c0:54:57:95:ad:d7:0b:82:5a:71:73:bb:bb:22:0f:
        32:85:b8:81:d5:a5:cc:60:d7:80:c5:d3:da:35:5b:a3:be:82:
        5c:2c:65:42:6a:3e:39:9c:55:60:6b:7b:6d:5c:14:cb:aa:4d:
        67:07:04:81:af:96:b6:84:5d:7a:34:4b:f2:93:27:81:39:bb:
        f4:be:00:3d:ea:5b:2b:f4:43:98:dc:ef:5f:6e:39:64:96:88:
        e6:e1:50:a0:82:1e:b8:71:ac:17:fd:25:7f:3b:63:89:07:51:
        4d:6b:94:96:58:46:83:3d:e0:53:79:24:ff:1d:f7:05:3f:82:
        29:60:67:f4:b2:ab:49:7b:f5:c3:55:6e:fc:a2:0a:29:b9:84:
        9e:e5:78:bc
-----BEGIN CERTIFICATE-----
MIIDezCCAmOgAwIBAgIJALF8/OqiJ4fhMA0GCSqGSIb3DQEBCwUAMIGCMQswCQYD
VQQGEwJVSzEQMA4GA1UECBMHRW5nbGFuZDEPMA0GA1UEBxMGTG9uZG9uMRkwFwYD
VQQKExBRcmVkbyBMdGQgKFRlc3QpMRYwFAYDVQQLEw1EZXYgVW5pdCBUZXN0MR0w
GwYDVQQDExRUZXN0SW50ZXJtZWRpYXRlQ0EtMTAeFw0xNTEyMTQxMTQ2MDVaFw0x
ODEyMTMxMTQ2MDVaMIGPMQswCQYDVQQGEwJVSzEQMA4GA1UECBMHRW5nbGFuZDEP
MA0GA1UEBxMGTG9uZG9uMRkwFwYDVQQKExBRcmVkbyBMdGQgKFRlc3QpMRYwFAYD
VQQLEw1EZXYgVW5pdCBUZXN0MSowKAYDVQQDEyFUZXN0Q2VydDEgdXNpbmcgSW50
ZXJtZWRpYXRlIENBIDEwgZ8wDQYJKoZIhvcNAQEBBQADgY0AMIGJAoGBALrbDS40
fquImaS+tQKgXFOIVRYUpFkyzLFdW9FZEX3t3C2gbZRZM2tS7/rAXAiTLEd5o/H5
YJSfCB9qhgqPUKVY1w6aS3fCQtXeX+ZJkOlVh40Iwfk2kJQ/NXaShwdiBQ7vio0J
x9GkwnBP5gEYhxJ4IcnAs24XJN3poTwNIHjDAgMBAAGjaTBnMAkGA1UdEwQCMAAw
HQYDVR0OBBYEFCmmoG22+ejNzQNsDwIWuoJiMeBBMB8GA1UdIwQYMBaAFOYH4Xew
mFqNs+B59tdze0LDdCfxMBoGA1UdEQQTMBGBD2FkbWluQHFyZWRvLmNvbTANBgkq
hkiG9w0BAQsFAAOCAQEAImKBRENSZPzY/QhA6wu3yGimidWf54+rVTpISGWWdImJ
q3dg7sg94Oqid7HjmC55yC0DiEenrIHCPrNbg50QRkBPvnyBdVFf8xVnMXGt5rH6
RmHTP6pLHUGwbKKXXodE016Pq0av66tvKR1WuialwFRXla3XC4JacXO7uyIPMoW4
gdWlzGDXgMXT2jVbo76CXCxlQmo+OZxVYGt7bVwUy6pNZwcEga+WtoRdejRL8pMn
gTm79L4APepbK/RDmNzvX245ZJaI5uFQoIIeuHGsF/0lfztjiQdRTWuUllhGgz3g
U3kk/x33BT+CKWBn9LKrSXv1w1Vu/KIKKbmEnuV4vA==
-----END CERTIFICATE-----
