Certificate:
    Data:
        Version: 3 (0x2)
        Serial Number:
            b1:7c:fc:ea:a2:27:87:e6
        Signature Algorithm: sha256WithRSAEncryption
        Issuer: C=UK, ST=England, L=London, O=Qredo Ltd (Test), OU=Dev Unit Test, CN=TestIntermediateCA-2
        Validity
            Not Before: Dec 14 11:46:27 2015 GMT
            Not After : Dec 13 11:46:27 2018 GMT
        Subject: C=UK, ST=England, L=London, O=Qredo Ltd (Test), OU=Dev Unit Test, CN=TestCert6 using Intermediate CA 2
        Subject Public Key Info:
            Public Key Algorithm: rsaEncryption
            RSA Public Key: (2048 bit)
                Modulus (2048 bit):
                    00:cf:88:9b:eb:c1:55:e0:a7:a7:fe:cd:46:80:4d:
                    d0:7d:59:f1:92:43:0b:c2:dc:76:37:4d:f3:f0:11:
                    07:38:ec:02:a2:59:16:0b:5d:49:79:b3:72:4f:de:
                    8d:b3:c5:63:9c:34:0d:51:2c:54:6b:7f:86:68:67:
                    e4:3d:c3:40:c5:4e:61:e0:cc:63:d7:82:1d:d7:7b:
                    be:b6:6b:b5:2f:1e:16:8c:05:67:89:f7:1a:2a:79:
                    6a:d9:1f:08:d6:c8:f5:6d:d7:0f:7c:49:2c:b0:d7:
                    cb:dd:e6:4a:08:9c:b7:62:67:73:b4:a7:47:9f:b5:
                    96:05:4f:0a:4a:b5:d9:58:4e:43:08:c9:b4:e4:ad:
                    45:ec:33:2a:35:10:81:ae:12:5f:ff:7e:28:d6:6a:
                    c2:c4:ff:62:26:09:96:8b:c1:60:bb:b7:57:e6:87:
                    ff:b4:2d:2b:d6:34:b3:8a:7e:a9:e3:75:d1:db:e1:
                    4c:b6:c8:81:be:14:f6:2e:c0:78:08:25:33:fa:78:
                    50:b7:ad:ee:61:80:e3:c8:d6:ca:a7:3f:5f:93:38:
                    22:ca:a7:d9:9e:23:cc:31:9e:63:7f:16:1d:53:20:
                    b3:2e:85:f5:2c:de:49:a5:be:06:36:69:07:ba:a8:
                    1a:8c:34:79:b5:3d:52:bb:fd:1a:da:c3:92:91:48:
                    b6:99
                Exponent: 65537 (0x10001)
        X509v3 extensions:
            X509v3 Basic Constraints: 
                CA:FALSE
            X509v3 Subject Key Identifier: 
                C4:94:84:D1:AA:F6:43:64:40:50:FD:B5:4B:2C:B9:B2:A3:39:A3:0B
            X509v3 Authority Key Identifier: 
                keyid:9F:9F:E2:92:5B:2C:08:3F:8D:7D:56:52:CB:AE:AE:D8:F0:3D:3D:36

            X509v3 Subject Alternative Name: 
                email:admin@qredo.com
    Signature Algorithm: sha256WithRSAEncryption
        0a:04:80:df:c6:10:d1:b5:b7:f1:c3:7f:9f:94:e6:4a:8e:55:
        09:67:8d:1d:ab:42:b4:9d:e3:a8:59:ee:29:5d:b2:e8:fb:a1:
        ff:20:f6:3d:88:05:0c:66:df:45:58:6f:bc:7d:44:ec:b8:0a:
        6b:0e:23:fc:f7:be:20:a5:76:9a:96:12:45:b0:93:b0:46:56:
        ac:7d:4e:be:f6:65:d2:b8:3b:82:0f:24:f3:64:7d:89:a3:88:
        0f:61:5a:5b:e5:9b:6a:e1:22:89:33:64:1d:7b:ac:c1:5b:f6:
        07:4d:07:d3:78:f7:c0:27:56:3b:37:09:ff:4d:64:99:20:4c:
        04:80:cf:d2:31:1e:d7:a0:34:0a:7a:a4:7b:53:f0:cc:33:1c:
        9b:af:34:61:07:30:92:a0:4b:ff:80:f6:9e:4b:19:af:17:87:
        31:a4:98:f5:33:e6:df:69:30:b1:42:ea:1c:6f:b2:30:75:87:
        74:54:e0:b3:60:64:51:35:37:63:32:52:8d:74:b6:e9:32:78:
        e7:35:b7:b2:b2:d3:b1:c0:23:70:8d:1a:25:65:ed:20:ad:32:
        8d:15:34:a3:98:85:9b:be:b9:31:5d:b2:c2:85:14:f9:01:27:
        3e:ca:9a:66:e4:e8:fd:1a:0e:99:22:e4:07:cb:11:a7:27:95:
        ba:d4:26:1e
-----BEGIN CERTIFICATE-----
MIID/zCCAuegAwIBAgIJALF8/OqiJ4fmMA0GCSqGSIb3DQEBCwUAMIGCMQswCQYD
VQQGEwJVSzEQMA4GA1UECBMHRW5nbGFuZDEPMA0GA1UEBxMGTG9uZG9uMRkwFwYD
VQQKExBRcmVkbyBMdGQgKFRlc3QpMRYwFAYDVQQLEw1EZXYgVW5pdCBUZXN0MR0w
GwYDVQQDExRUZXN0SW50ZXJtZWRpYXRlQ0EtMjAeFw0xNTEyMTQxMTQ2MjdaFw0x
ODEyMTMxMTQ2MjdaMIGPMQswCQYDVQQGEwJVSzEQMA4GA1UECBMHRW5nbGFuZDEP
MA0GA1UEBxMGTG9uZG9uMRkwFwYDVQQKExBRcmVkbyBMdGQgKFRlc3QpMRYwFAYD
VQQLEw1EZXYgVW5pdCBUZXN0MSowKAYDVQQDEyFUZXN0Q2VydDYgdXNpbmcgSW50
ZXJtZWRpYXRlIENBIDIwggEiMA0GCSqGSIb3DQEBAQUAA4IBDwAwggEKAoIBAQDP
iJvrwVXgp6f+zUaATdB9WfGSQwvC3HY3TfPwEQc47AKiWRYLXUl5s3JP3o2zxWOc
NA1RLFRrf4ZoZ+Q9w0DFTmHgzGPXgh3Xe762a7UvHhaMBWeJ9xoqeWrZHwjWyPVt
1w98SSyw18vd5koInLdiZ3O0p0eftZYFTwpKtdlYTkMIybTkrUXsMyo1EIGuEl//
fijWasLE/2ImCZaLwWC7t1fmh/+0LSvWNLOKfqnjddHb4Uy2yIG+FPYuwHgIJTP6
eFC3re5hgOPI1sqnP1+TOCLKp9meI8wxnmN/Fh1TILMuhfUs3kmlvgY2aQe6qBqM
NHm1PVK7/Rraw5KRSLaZAgMBAAGjaTBnMAkGA1UdEwQCMAAwHQYDVR0OBBYEFMSU
hNGq9kNkQFD9tUssubKjOaMLMB8GA1UdIwQYMBaAFJ+f4pJbLAg/jX1WUsuurtjw
PT02MBoGA1UdEQQTMBGBD2FkbWluQHFyZWRvLmNvbTANBgkqhkiG9w0BAQsFAAOC
AQEACgSA38YQ0bW38cN/n5TmSo5VCWeNHatCtJ3jqFnuKV2y6Puh/yD2PYgFDGbf
RVhvvH1E7LgKaw4j/Pe+IKV2mpYSRbCTsEZWrH1OvvZl0rg7gg8k82R9iaOID2Fa
W+WbauEiiTNkHXuswVv2B00H03j3wCdWOzcJ/01kmSBMBIDP0jEe16A0Cnqke1Pw
zDMcm680YQcwkqBL/4D2nksZrxeHMaSY9TPm32kwsULqHG+yMHWHdFTgs2BkUTU3
YzJSjXS26TJ45zW3srLTscAjcI0aJWXtIK0yjRU0o5iFm765MV2ywoUU+QEnPsqa
ZuTo/RoOmSLkB8sRpyeVutQmHg==
-----END CERTIFICATE-----
