Certificate:
    Data:
        Version: 3 (0x2)
        Serial Number:
            f4:15:03:b2:86:25:4e:fe
        Signature Algorithm: sha256WithRSAEncryption
        Issuer: C=UK, ST=England, O=Qredo Ltd (Test), OU=Dev Unit Test, CN=TestRootCA
        Validity
            Not Before: Apr 22 14:14:55 2015 GMT
            Not After : Apr 19 14:14:55 2025 GMT
        Subject: C=UK, ST=England, O=Qredo Ltd (Test), OU=Dev Unit Test, CN=TestRootCA
        Subject Public Key Info:
            Public Key Algorithm: rsaEncryption
            RSA Public Key: (2048 bit)
                Modulus (2048 bit):
                    00:c4:d1:47:e3:94:a3:ef:b4:e3:a8:e9:d4:a2:92:
                    e8:d9:fc:8a:61:4e:20:29:6b:33:f1:85:d4:ed:b4:
                    8d:81:50:cf:8a:15:89:ee:d2:ea:e9:4f:b8:3f:a8:
                    8f:3f:76:e4:3a:3f:96:d4:db:02:6b:3c:04:f2:e8:
                    f9:8a:58:be:0f:0c:4d:43:80:b6:ca:f2:2b:d9:3b:
                    4b:5c:96:0d:0a:58:84:6f:85:bd:fd:8c:3c:b6:c2:
                    56:93:76:55:d7:50:da:53:6c:90:00:15:40:96:cc:
                    1e:10:65:9e:4a:a2:6f:25:6e:7f:2c:c8:53:2d:62:
                    ab:a6:7f:63:56:e0:ff:9d:86:3e:14:2e:f3:3a:b3:
                    c8:0a:6a:93:dd:34:57:ac:35:1b:ee:bf:23:b5:a2:
                    1c:f1:99:15:e7:fa:c8:35:f4:ae:a5:1e:68:35:6d:
                    01:f5:a7:4f:c7:7d:d4:86:08:27:ac:77:0c:35:fd:
                    35:90:a0:f2:10:8c:c3:de:df:f1:80:60:ea:0d:02:
                    ba:ab:a6:ca:7d:7e:2c:2f:11:1f:fc:f6:c0:25:b4:
                    72:35:4c:f5:6f:ac:2c:3a:98:a3:37:40:1b:20:7c:
                    bd:b9:53:1d:98:8f:c3:bf:06:f1:08:59:4e:a2:d0:
                    45:62:c0:13:6b:25:a1:21:13:9f:47:f4:c3:03:8d:
                    c8:b7
                Exponent: 65537 (0x10001)
        X509v3 extensions:
            X509v3 Subject Key Identifier: 
                5B:7D:72:FC:6A:C3:45:43:B8:52:1A:62:64:FB:24:1A:A3:8A:F6:7C
            X509v3 Authority Key Identifier: 
                keyid:5B:7D:72:FC:6A:C3:45:43:B8:52:1A:62:64:FB:24:1A:A3:8A:F6:7C
                DirName:/C=UK/ST=England/O=Qredo Ltd (Test)/OU=Dev Unit Test/CN=TestRootCA
                serial:F4:15:03:B2:86:25:4E:FE

            X509v3 Basic Constraints: 
                CA:TRUE
            X509v3 Subject Alternative Name: 
                email:admin@qredo.com
    Signature Algorithm: sha256WithRSAEncryption
        00:84:1f:ea:b4:be:36:30:7f:a8:3f:7c:29:6d:86:2b:c4:f9:
        22:43:72:9d:be:61:ed:48:c1:d7:68:22:64:99:69:ab:8a:04:
        29:44:ec:23:dd:19:60:f8:84:34:6e:f0:f9:7b:5e:af:83:70:
        9a:33:18:18:31:d4:32:e9:eb:30:89:a4:8d:ca:09:81:41:14:
        39:c6:b9:12:a0:e6:cf:a8:04:43:3b:4d:38:06:e4:5c:a7:a6:
        b3:fc:43:c9:b9:7d:97:c0:bd:4f:b6:4b:61:53:96:21:29:09:
        28:03:40:43:f6:d8:31:6f:ee:90:68:5c:af:f0:99:c9:2f:7e:
        b3:e4:29:6e:ca:a5:79:a5:77:0f:99:ea:19:e8:33:00:c0:5f:
        cb:47:16:25:35:a4:67:b3:53:8c:66:9c:31:84:41:7e:9a:2b:
        48:f1:35:f1:46:9c:56:c1:b5:da:45:92:b8:4c:04:d2:c8:f9:
        59:28:64:df:1e:94:f6:d0:5d:66:d7:1a:3f:cf:68:28:b4:1f:
        94:33:97:dc:e4:bc:2d:e7:d7:5f:69:04:85:1a:6c:91:e1:c2:
        23:ae:e3:5e:80:ce:70:b4:8c:c5:b3:c2:58:f6:91:4e:24:f5:
        51:a5:31:ad:75:83:73:50:8a:a0:e7:bc:32:b8:8e:e6:6f:1e:
        a0:bc:f8:ba
-----BEGIN CERTIFICATE-----
MIIEOjCCAyKgAwIBAgIJAPQVA7KGJU7+MA0GCSqGSIb3DQEBCwUAMGcxCzAJBgNV
BAYTAlVLMRAwDgYDVQQIEwdFbmdsYW5kMRkwFwYDVQQKExBRcmVkbyBMdGQgKFRl
c3QpMRYwFAYDVQQLEw1EZXYgVW5pdCBUZXN0MRMwEQYDVQQDEwpUZXN0Um9vdENB
MB4XDTE1MDQyMjE0MTQ1NVoXDTI1MDQxOTE0MTQ1NVowZzELMAkGA1UEBhMCVUsx
EDAOBgNVBAgTB0VuZ2xhbmQxGTAXBgNVBAoTEFFyZWRvIEx0ZCAoVGVzdCkxFjAU
BgNVBAsTDURldiBVbml0IFRlc3QxEzARBgNVBAMTClRlc3RSb290Q0EwggEiMA0G
CSqGSIb3DQEBAQUAA4IBDwAwggEKAoIBAQDE0UfjlKPvtOOo6dSikujZ/IphTiAp
azPxhdTttI2BUM+KFYnu0urpT7g/qI8/duQ6P5bU2wJrPATy6PmKWL4PDE1DgLbK
8ivZO0tclg0KWIRvhb39jDy2wlaTdlXXUNpTbJAAFUCWzB4QZZ5Kom8lbn8syFMt
Yqumf2NW4P+dhj4ULvM6s8gKapPdNFesNRvuvyO1ohzxmRXn+sg19K6lHmg1bQH1
p0/HfdSGCCesdww1/TWQoPIQjMPe3/GAYOoNArqrpsp9fiwvER/89sAltHI1TPVv
rCw6mKM3QBsgfL25Ux2Yj8O/BvEIWU6i0EViwBNrJaEhE59H9MMDjci3AgMBAAGj
gegwgeUwHQYDVR0OBBYEFFt9cvxqw0VDuFIaYmT7JBqjivZ8MIGZBgNVHSMEgZEw
gY6AFFt9cvxqw0VDuFIaYmT7JBqjivZ8oWukaTBnMQswCQYDVQQGEwJVSzEQMA4G
A1UECBMHRW5nbGFuZDEZMBcGA1UEChMQUXJlZG8gTHRkIChUZXN0KTEWMBQGA1UE
CxMNRGV2IFVuaXQgVGVzdDETMBEGA1UEAxMKVGVzdFJvb3RDQYIJAPQVA7KGJU7+
MAwGA1UdEwQFMAMBAf8wGgYDVR0RBBMwEYEPYWRtaW5AcXJlZG8uY29tMA0GCSqG
SIb3DQEBCwUAA4IBAQAAhB/qtL42MH+oP3wpbYYrxPkiQ3KdvmHtSMHXaCJkmWmr
igQpROwj3Rlg+IQ0bvD5e16vg3CaMxgYMdQy6eswiaSNygmBQRQ5xrkSoObPqARD
O004BuRcp6az/EPJuX2XwL1PtkthU5YhKQkoA0BD9tgxb+6QaFyv8JnJL36z5Clu
yqV5pXcPmeoZ6DMAwF/LRxYlNaRns1OMZpwxhEF+mitI8TXxRpxWwbXaRZK4TATS
yPlZKGTfHpT20F1m1xo/z2gotB+UM5fc5Lwt59dfaQSFGmyR4cIjruNegM5wtIzF
s8JY9pFOJPVRpTGtdYNzUIqg57wyuI7mbx6gvPi6
-----END CERTIFICATE-----
