Certificate:
    Data:
        Version: 3 (0x2)
        Serial Number:
            b1:7c:fc:ea:a2:27:87:de
        Signature Algorithm: sha256WithRSAEncryption
        Issuer: C=UK, ST=England, O=Qredo Ltd (Test), OU=Dev Unit Test, CN=TestRootCA
        Validity
            Not Before: Dec 14 11:46:04 2015 GMT
            Not After : Dec 11 11:46:04 2025 GMT
        Subject: C=UK, ST=England, O=Qredo Ltd (Test), OU=Dev Unit Test, CN=TestRootCA
        Subject Public Key Info:
            Public Key Algorithm: rsaEncryption
            RSA Public Key: (2048 bit)
                Modulus (2048 bit):
                    00:bb:03:e1:85:f2:fc:02:fa:52:80:af:5e:46:db:
                    df:5a:82:2e:6a:3d:a1:a7:97:8a:f0:eb:bd:8c:01:
                    8e:02:1a:26:2b:be:02:9c:9d:7d:e1:38:18:39:c3:
                    8b:9a:89:90:6c:60:69:bf:96:5d:ce:92:e8:1f:b7:
                    d0:8a:6e:4d:4e:2e:3a:7e:a7:ac:08:f1:47:c6:d7:
                    86:d0:86:aa:83:2e:9f:0e:8b:2e:be:1d:e1:59:24:
                    fb:64:42:d3:9b:f3:f0:4c:2e:a7:89:52:d7:a3:3d:
                    1a:de:4a:c6:69:b2:32:c2:88:2f:43:49:51:0b:28:
                    2e:50:39:a8:75:f9:13:17:d7:19:8c:a7:47:18:d3:
                    55:ff:00:1e:0a:ec:4b:e0:58:d1:11:85:d8:4a:5d:
                    de:80:53:35:05:0c:68:2b:8d:aa:56:e8:93:7f:15:
                    70:18:8f:be:11:fd:16:18:87:8b:95:2f:57:b9:1d:
                    33:1a:dd:b7:15:56:d9:d2:be:95:03:b5:03:ba:24:
                    d9:68:a5:1f:06:78:e0:ca:6a:d4:a9:94:e0:4d:cb:
                    90:e3:8e:be:27:bd:f4:32:7a:59:96:36:13:a6:fc:
                    07:93:be:75:c4:91:89:e6:02:ab:61:bc:fc:5c:77:
                    1d:d3:4a:61:9a:e7:16:a6:2c:d5:46:07:75:b1:6d:
                    86:0d
                Exponent: 65537 (0x10001)
        X509v3 extensions:
            X509v3 Subject Key Identifier: 
                24:E9:3E:16:C6:D1:B6:9C:11:AD:EE:EF:F6:EB:C5:14:0A:E1:50:4E
            X509v3 Authority Key Identifier: 
                keyid:24:E9:3E:16:C6:D1:B6:9C:11:AD:EE:EF:F6:EB:C5:14:0A:E1:50:4E
                DirName:/C=UK/ST=England/O=Qredo Ltd (Test)/OU=Dev Unit Test/CN=TestRootCA
                serial:B1:7C:FC:EA:A2:27:87:DE

            X509v3 Basic Constraints: 
                CA:TRUE
            X509v3 Subject Alternative Name: 
                DNS:qredo.com
    Signature Algorithm: sha256WithRSAEncryption
        9f:14:ba:38:23:d8:a8:1c:ef:e0:7f:90:63:0e:cd:86:04:50:
        da:cb:f1:ad:28:30:a6:f8:36:af:90:90:65:af:d0:b3:4c:46:
        2a:99:52:f6:4e:e8:cb:65:0c:c1:7c:bb:6a:3a:a8:01:95:dc:
        a0:b7:95:05:ea:c5:ca:8f:8d:b0:0b:ce:c3:14:34:ce:89:52:
        17:ce:42:dc:e6:c1:9f:af:80:ff:be:1a:09:a6:36:0a:c7:2c:
        2c:5f:a8:d8:d5:e9:db:72:3c:68:c7:e3:51:cd:7a:4c:48:25:
        a2:32:85:be:80:3e:33:17:cd:ff:af:e5:25:5a:cc:60:5d:22:
        33:74:2d:76:35:5a:8e:b1:2b:f2:ae:58:8e:bb:40:1c:e3:f9:
        04:e5:a9:42:75:5b:66:17:ee:c0:93:d9:c4:93:2c:97:be:2d:
        d4:8c:63:44:f3:ab:e5:34:dd:52:96:6e:f4:52:6f:7c:65:80:
        39:a7:81:1f:73:c1:04:fb:3d:0c:6b:8c:76:0f:db:78:ba:ce:
        70:b0:cc:02:56:a7:1b:bb:6b:31:a3:96:77:d4:a4:28:11:b9:
        80:f4:29:71:a5:2d:77:34:f5:1f:3e:31:4d:fe:32:10:54:42:
        47:f8:3a:e4:e1:15:7b:f7:80:2e:22:fe:32:38:78:2a:87:29:
        d3:7a:db:2f
-----BEGIN CERTIFICATE-----
MIIENDCCAxygAwIBAgIJALF8/OqiJ4feMA0GCSqGSIb3DQEBCwUAMGcxCzAJBgNV
BAYTAlVLMRAwDgYDVQQIEwdFbmdsYW5kMRkwFwYDVQQKExBRcmVkbyBMdGQgKFRl
c3QpMRYwFAYDVQQLEw1EZXYgVW5pdCBUZXN0MRMwEQYDVQQDEwpUZXN0Um9vdENB
MB4XDTE1MTIxNDExNDYwNFoXDTI1MTIxMTExNDYwNFowZzELMAkGA1UEBhMCVUsx
EDAOBgNVBAgTB0VuZ2xhbmQxGTAXBgNVBAoTEFFyZWRvIEx0ZCAoVGVzdCkxFjAU
BgNVBAsTDURldiBVbml0IFRlc3QxEzARBgNVBAMTClRlc3RSb290Q0EwggEiMA0G
CSqGSIb3DQEBAQUAA4IBDwAwggEKAoIBAQC7A+GF8vwC+lKAr15G299agi5qPaGn
l4rw672MAY4CGiYrvgKcnX3hOBg5w4uaiZBsYGm/ll3Okugft9CKbk1OLjp+p6wI
8UfG14bQhqqDLp8Oiy6+HeFZJPtkQtOb8/BMLqeJUtejPRreSsZpsjLCiC9DSVEL
KC5QOah1+RMX1xmMp0cY01X/AB4K7EvgWNERhdhKXd6AUzUFDGgrjapW6JN/FXAY
j74R/RYYh4uVL1e5HTMa3bcVVtnSvpUDtQO6JNlopR8GeODKatSplOBNy5Djjr4n
vfQyelmWNhOm/AeTvnXEkYnmAqthvPxcdx3TSmGa5xamLNVGB3WxbYYNAgMBAAGj
geIwgd8wHQYDVR0OBBYEFCTpPhbG0bacEa3u7/brxRQK4VBOMIGZBgNVHSMEgZEw
gY6AFCTpPhbG0bacEa3u7/brxRQK4VBOoWukaTBnMQswCQYDVQQGEwJVSzEQMA4G
A1UECBMHRW5nbGFuZDEZMBcGA1UEChMQUXJlZG8gTHRkIChUZXN0KTEWMBQGA1UE
CxMNRGV2IFVuaXQgVGVzdDETMBEGA1UEAxMKVGVzdFJvb3RDQYIJALF8/OqiJ4fe
MAwGA1UdEwQFMAMBAf8wFAYDVR0RBA0wC4IJcXJlZG8uY29tMA0GCSqGSIb3DQEB
CwUAA4IBAQCfFLo4I9ioHO/gf5BjDs2GBFDay/GtKDCm+DavkJBlr9CzTEYqmVL2
TujLZQzBfLtqOqgBldygt5UF6sXKj42wC87DFDTOiVIXzkLc5sGfr4D/vhoJpjYK
xywsX6jY1enbcjxox+NRzXpMSCWiMoW+gD4zF83/r+UlWsxgXSIzdC12NVqOsSvy
rliOu0Ac4/kE5alCdVtmF+7Ak9nEkyyXvi3UjGNE86vlNN1Slm70Um98ZYA5p4Ef
c8EE+z0Ma4x2D9t4us5wsMwCVqcbu2sxo5Z31KQoEbmA9ClxpS13NPUfPjFN/jIQ
VEJH+Drk4RV794AuIv4yOHgqhynTetsv
-----END CERTIFICATE-----
