Certificate:
    Data:
        Version: 3 (0x2)
        Serial Number:
            f4:15:03:b2:86:25:4e:fe
        Signature Algorithm: sha256WithRSAEncryption
        Issuer: C=UK, ST=England, O=Qredo Ltd (Test), OU=Dev Unit Test, CN=TestRootCA
        Validity
            Not Before: Apr 22 14:14:55 2015 GMT
            Not After : Apr 19 14:14:55 2025 GMT
        Subject: C=UK, ST=England, O=Qredo Ltd (Test), OU=Dev Unit Test, CN=TestRootCA
        Subject Public Key Info:
            Public Key Algorithm: rsaEncryption
            RSA Public Key: (2048 bit)
                Modulus (2048 bit):
                    00:c4:d1:47:e3:94:a3:ef:b4:e3:a8:e9:d4:a2:92:
                    e8:d9:fc:8a:61:4e:20:29:6b:33:f1:85:d4:ed:b4:
                    8d:81:50:cf:8a:15:89:ee:d2:ea:e9:4f:b8:3f:a8:
                    8f:3f:76:e4:3a:3f:96:d4:db:02:6b:3c:04:f2:e8:
                    f9:8a:58:be:0f:0c:4d:43:80:b6:ca:f2:2b:d9:3b:
                    4b:5c:96:0d:0a:58:84:6f:85:bd:fd:8c:3c:b6:c2:
                    56:93:76:55:d7:50:da:53:6c:90:00:15:40:96:cc:
                    1e:10:65:9e:4a:a2:6f:25:6e:7f:2c:c8:53:2d:62:
                    ab:a6:7f:63:56:e0:ff:9d:86:3e:14:2e:f3:3a:b3:
                    c8:0a:6a:93:dd:34:57:ac:35:1b:ee:bf:23:b5:a2:
                    1c:f1:99:15:e7:fa:c8:35:f4:ae:a5:1e:68:35:6d:
                    01:f5:a7:4f:c7:7d:d4:86:08:27:ac:77:0c:35:fd:
                    35:90:a0:f2:10:8c:c3:de:df:f1:80:60:ea:0d:02:
                    ba:ab:a6:ca:7d:7e:2c:2f:11:1f:fc:f6:c0:25:b4:
                    72:35:4c:f5:6f:ac:2c:3a:98:a3:37:40:1b:20:7c:
                    bd:b9:53:1d:98:8f:c3:bf:06:f1:08:59:4e:a2:d0:
                    45:62:c0:13:6b:25:a1:21:13:9f:47:f4:c3:03:8d:
                    c8:b7
                Exponent: 65537 (0x10001)
        X509v3 extensions:
            X509v3 Subject Key Identifier: 
                5B:7D:72:FC:6A:C3:45:43:B8:52:1A:62:64:FB:24:1A:A3:8A:F6:7C
            X509v3 Authority Key Identifier: 
                keyid:5B:7D:72:FC:6A:C3:45:43:B8:52:1A:62:64:FB:24:1A:A3:8A:F6:7C
                DirName:/C=UK/ST=England/O=Qredo Ltd (Test)/OU=Dev Unit Test/CN=TestRootCA
                serial:F4:15:03:B2:86:25:4E:FE

            X509v3 Basic Constraints: 
                CA:TRUE
            X509v3 Subject Alternative Name: 
                email:admin@qredo.com
    Signature Algorithm: sha256WithRSAEncryption
        00:84:1f:ea:b4:be:36:30:7f:a8:3f:7c:29:6d:86:2b:c4:f9:
        22:43:72:9d:be:61:ed:48:c1:d7:68:22:64:99:69:ab:8a:04:
        29:44:ec:23:dd:19:60:f8:84:34:6e:f0:f9:7b:5e:af:83:70:
        9a:33:18:18:31:d4:32:e9:eb:30:89:a4:8d:ca:09:81:41:14:
        39:c6:b9:12:a0:e6:cf:a8:04:43:3b:4d:38:06:e4:5c:a7:a6:
        b3:fc:43:c9:b9:7d:97:c0:bd:4f:b6:4b:61:53:96:21:29:09:
        28:03:40:43:f6:d8:31:6f:ee:90:68:5c:af:f0:99:c9:2f:7e:
        b3:e4:29:6e:ca:a5:79:a5:77:0f:99:ea:19:e8:33:00:c0:5f:
        cb:47:16:25:35:a4:67:b3:53:8c:66:9c:31:84:41:7e:9a:2b:
        48:f1:35:f1:46:9c:56:c1:b5:da:45:92:b8:4c:04:d2:c8:f9:
        59:28:64:df:1e:94:f6:d0:5d:66:d7:1a:3f:cf:68:28:b4:1f:
        94:33:97:dc:e4:bc:2d:e7:d7:5f:69:04:85:1a:6c:91:e1:c2:
        23:ae:e3:5e:80:ce:70:b4:8c:c5:b3:c2:58:f6:91:4e:24:f5:
        51:a5:31:ad:75:83:73:50:8a:a0:e7:bc:32:b8:8e:e6:6f:1e:
        a0:bc:f8:ba
-----BEGIN CERTIFICATE-----
MIIEOjCCAyKgAwIBAgIJAPQVA7KGJU7+MA0GCSqGSIb3DQEBCwUAMGcxCzAJBgNV
BAYTAlVLMRAwDgYDVQQIEwdFbmdsYW5kMRkwFwYDVQQKExBRcmVkbyBMdGQgKFRl
c3QpMRYwFAYDVQQLEw1EZXYgVW5pdCBUZXN0MRMwEQYDVQQDEwpUZXN0Um9vdENB
MB4XDTE1MDQyMjE0MTQ1NVoXDTI1MDQxOTE0MTQ1NVowZzELMAkGA1UEBhMCVUsx
EDAOBgNVBAgTB0VuZ2xhbmQxGTAXBgNVBAoTEFFyZWRvIEx0ZCAoVGVzdCkxFjAU
BgNVBAsTDURldiBVbml0IFRlc3QxEzARBgNVBAMTClRlc3RSb290Q0EwggEiMA0G
CSqGSIb3DQEBAQUAA4IBDwAwggEKAoIBAQDE0UfjlKPvtOOo6dSikujZ/IphTiAp
azPxhdTttI2BUM+KFYnu0urpT7g/qI8/duQ6P5bU2wJrPATy6PmKWL4PDE1DgLbK
8ivZO0tclg0KWIRvhb39jDy2wlaTdlXXUNpTbJAAFUCWzB4QZZ5Kom8lbn8syFMt
Yqumf2NW4P+dhj4ULvM6s8gKapPdNFesNRvuvyO1ohzxmRXn+sg19K6lHmg1bQH1
p0/HfdSGCCesdww1/TWQoPIQjMPe3/GAYOoNArqrpsp9fiwvER/89sAltHI1TPVv
rCw6mKM3QBsgfL25Ux2Yj8O/BvEIWU6i0EViwBNrJaEhE59H9MMDjci3AgMBAAGj
gegwgeUwHQYDVR0OBBYEFFt9cvxqw0VDuFIaYmT7JBqjivZ8MIGZBgNVHSMEgZEw
gY6AFFt9cvxqw0VDuFIaYmT7JBqjivZ8oWukaTBnMQswCQYDVQQGEwJVSzEQMA4G
A1UECBMHRW5nbGFuZDEZMBcGA1UEChMQUXJlZG8gTHRkIChUZXN0KTEWMBQGA1UE
CxMNRGV2IFVuaXQgVGVzdDETMBEGA1UEAxMKVGVzdFJvb3RDQYIJAPQVA7KGJU7+
MAwGA1UdEwQFMAMBAf8wGgYDVR0RBBMwEYEPYWRtaW5AcXJlZG8uY29tMA0GCSqG
SIb3DQEBCwUAA4IBAQAAhB/qtL42MH+oP3wpbYYrxPkiQ3KdvmHtSMHXaCJkmWmr
igQpROwj3Rlg+IQ0bvD5e16vg3CaMxgYMdQy6eswiaSNygmBQRQ5xrkSoObPqARD
O004BuRcp6az/EPJuX2XwL1PtkthU5YhKQkoA0BD9tgxb+6QaFyv8JnJL36z5Clu
yqV5pXcPmeoZ6DMAwF/LRxYlNaRns1OMZpwxhEF+mitI8TXxRpxWwbXaRZK4TATS
yPlZKGTfHpT20F1m1xo/z2gotB+UM5fc5Lwt59dfaQSFGmyR4cIjruNegM5wtIzF
s8JY9pFOJPVRpTGtdYNzUIqg57wyuI7mbx6gvPi6
-----END CERTIFICATE-----
Certificate:
    Data:
        Version: 3 (0x2)
        Serial Number:
            f4:15:03:b2:86:25:4e:ff
        Signature Algorithm: sha256WithRSAEncryption
        Issuer: C=UK, ST=England, O=Qredo Ltd (Test), OU=Dev Unit Test, CN=TestRootCA
        Validity
            Not Before: Apr 22 14:14:55 2015 GMT
            Not After : Apr 21 14:14:55 2018 GMT
        Subject: C=UK, ST=England, L=London, O=Qredo Ltd (Test), OU=Dev Unit Test, CN=TestIntermediateCA-1
        Subject Public Key Info:
            Public Key Algorithm: rsaEncryption
            RSA Public Key: (2048 bit)
                Modulus (2048 bit):
                    00:e3:b6:2f:1a:fc:15:4c:e0:fa:4b:bb:6a:68:e8:
                    99:e4:86:2b:05:d1:ff:22:26:24:e8:47:5e:15:e6:
                    fe:1e:e5:74:2c:ec:49:6a:55:18:ee:b4:c8:7b:91:
                    aa:4b:ed:d1:ce:68:a6:72:a8:da:50:89:b0:55:b0:
                    71:b3:dd:98:e5:cf:7e:59:e3:06:b9:e0:8e:9c:cd:
                    a4:cb:c8:78:43:cf:18:bf:40:94:ce:e9:08:e9:95:
                    fd:a6:cb:17:97:3c:46:27:25:13:ec:e0:79:d5:8f:
                    f4:ea:43:ef:39:b8:36:79:44:06:80:70:3a:d4:14:
                    88:23:66:e2:5c:50:d8:dc:ad:60:5d:6f:ad:59:7e:
                    e3:ca:e4:57:74:5b:26:e5:c0:20:28:c8:6e:6a:4d:
                    a7:d7:3d:68:83:be:18:3d:91:b6:27:c5:6a:71:2b:
                    65:a9:18:a8:eb:b1:81:61:62:1c:ec:b6:14:2b:08:
                    4b:7c:8c:18:87:b9:46:db:ee:a3:db:c7:59:03:d2:
                    84:cc:cc:64:ba:e6:e7:12:77:15:c4:41:e6:99:3f:
                    91:b9:10:14:e6:42:21:96:b3:67:de:9a:87:3b:7b:
                    bf:54:00:7c:5f:83:1c:0d:18:92:58:50:55:52:78:
                    8f:8f:18:eb:63:7a:00:f1:5c:1e:6a:26:da:ce:45:
                    ab:77
                Exponent: 65537 (0x10001)
        X509v3 extensions:
            X509v3 Subject Key Identifier: 
                40:8B:F2:3B:8C:84:A2:61:32:A1:29:C6:BC:DD:AF:8C:6B:7A:A1:F8
            X509v3 Authority Key Identifier: 
                keyid:5B:7D:72:FC:6A:C3:45:43:B8:52:1A:62:64:FB:24:1A:A3:8A:F6:7C
                DirName:/C=UK/ST=England/O=Qredo Ltd (Test)/OU=Dev Unit Test/CN=TestRootCA
                serial:F4:15:03:B2:86:25:4E:FE

            X509v3 Basic Constraints: 
                CA:TRUE
            X509v3 Subject Alternative Name: 
                email:admin@qredo.com
    Signature Algorithm: sha256WithRSAEncryption
        c1:c1:f6:da:f3:62:02:f5:2d:c1:db:67:45:0f:c9:de:81:c1:
        f0:1f:46:e9:b6:56:94:76:4c:db:a3:09:83:a3:d5:19:79:92:
        6f:09:ae:05:c2:86:f4:b0:af:94:34:ca:03:4f:d5:a1:43:0b:
        26:70:16:cd:dd:e7:fd:67:fe:b0:84:48:01:ed:1f:3a:96:3b:
        dc:7f:52:f0:ba:8b:71:1b:81:94:4c:54:6e:55:57:68:13:bc:
        dc:ca:2d:e3:e2:db:3d:a1:fb:67:0e:3e:29:5e:6f:b0:b3:f4:
        64:18:26:b7:f4:d7:26:d8:96:a4:68:b5:04:0b:95:d3:14:a1:
        30:33:79:fa:7c:bc:92:ed:bc:d0:8b:5f:37:cc:80:01:72:cb:
        83:50:8c:ee:21:1a:40:79:a0:8f:02:35:f2:2c:69:98:6b:d2:
        e6:af:ca:94:0c:92:ab:13:c7:50:6b:a3:8b:d8:00:91:c4:7e:
        45:c4:f8:ad:1e:cc:97:d1:29:0c:0d:ad:25:06:a4:9f:e3:41:
        5e:e9:00:b1:ab:fa:18:dc:df:7e:0b:ed:b4:a5:03:6a:22:93:
        2d:df:ac:e2:9c:0f:45:ce:ff:43:3c:fc:1f:73:a8:e1:aa:a0:
        1e:bd:5e:ee:a6:88:00:d7:f0:ba:04:4c:82:54:3d:3b:fa:89:
        7e:48:67:67
-----BEGIN CERTIFICATE-----
MIIEVjCCAz6gAwIBAgIJAPQVA7KGJU7/MA0GCSqGSIb3DQEBCwUAMGcxCzAJBgNV
BAYTAlVLMRAwDgYDVQQIEwdFbmdsYW5kMRkwFwYDVQQKExBRcmVkbyBMdGQgKFRl
c3QpMRYwFAYDVQQLEw1EZXYgVW5pdCBUZXN0MRMwEQYDVQQDEwpUZXN0Um9vdENB
MB4XDTE1MDQyMjE0MTQ1NVoXDTE4MDQyMTE0MTQ1NVowgYIxCzAJBgNVBAYTAlVL
MRAwDgYDVQQIEwdFbmdsYW5kMQ8wDQYDVQQHEwZMb25kb24xGTAXBgNVBAoTEFFy
ZWRvIEx0ZCAoVGVzdCkxFjAUBgNVBAsTDURldiBVbml0IFRlc3QxHTAbBgNVBAMT
FFRlc3RJbnRlcm1lZGlhdGVDQS0xMIIBIjANBgkqhkiG9w0BAQEFAAOCAQ8AMIIB
CgKCAQEA47YvGvwVTOD6S7tqaOiZ5IYrBdH/IiYk6EdeFeb+HuV0LOxJalUY7rTI
e5GqS+3RzmimcqjaUImwVbBxs92Y5c9+WeMGueCOnM2ky8h4Q88Yv0CUzukI6ZX9
pssXlzxGJyUT7OB51Y/06kPvObg2eUQGgHA61BSII2biXFDY3K1gXW+tWX7jyuRX
dFsm5cAgKMhuak2n1z1og74YPZG2J8VqcStlqRio67GBYWIc7LYUKwhLfIwYh7lG
2+6j28dZA9KEzMxkuubnEncVxEHmmT+RuRAU5kIhlrNn3pqHO3u/VAB8X4McDRiS
WFBVUniPjxjrY3oA8VweaibazkWrdwIDAQABo4HoMIHlMB0GA1UdDgQWBBRAi/I7
jISiYTKhKca83a+Ma3qh+DCBmQYDVR0jBIGRMIGOgBRbfXL8asNFQ7hSGmJk+yQa
o4r2fKFrpGkwZzELMAkGA1UEBhMCVUsxEDAOBgNVBAgTB0VuZ2xhbmQxGTAXBgNV
BAoTEFFyZWRvIEx0ZCAoVGVzdCkxFjAUBgNVBAsTDURldiBVbml0IFRlc3QxEzAR
BgNVBAMTClRlc3RSb290Q0GCCQD0FQOyhiVO/jAMBgNVHRMEBTADAQH/MBoGA1Ud
EQQTMBGBD2FkbWluQHFyZWRvLmNvbTANBgkqhkiG9w0BAQsFAAOCAQEAwcH22vNi
AvUtwdtnRQ/J3oHB8B9G6bZWlHZM26MJg6PVGXmSbwmuBcKG9LCvlDTKA0/VoUML
JnAWzd3n/Wf+sIRIAe0fOpY73H9S8LqLcRuBlExUblVXaBO83Mot4+LbPaH7Zw4+
KV5vsLP0ZBgmt/TXJtiWpGi1BAuV0xShMDN5+ny8ku280ItfN8yAAXLLg1CM7iEa
QHmgjwI18ixpmGvS5q/KlAySqxPHUGuji9gAkcR+RcT4rR7Ml9EpDA2tJQakn+NB
XukAsav6GNzffgvttKUDaiKTLd+s4pwPRc7/Qzz8H3Oo4aqgHr1e7qaIANfwugRM
glQ9O/qJfkhnZw==
-----END CERTIFICATE-----
-----BEGIN X509 CRL-----
MIIBwDCBqQIBATANBgkqhkiG9w0BAQsFADBnMQswCQYDVQQGEwJVSzEQMA4GA1UE
CBMHRW5nbGFuZDEZMBcGA1UEChMQUXJlZG8gTHRkIChUZXN0KTEWMBQGA1UECxMN
RGV2IFVuaXQgVGVzdDETMBEGA1UEAxMKVGVzdFJvb3RDQRcNMTUwNDIyMTQxNDU1
WhcNMTUwNTIyMTQxNDU1WqAOMAwwCgYDVR0UBAMCAQEwDQYJKoZIhvcNAQELBQAD
ggEBALMxc4386iD6Y1xJQnY1bdQennKKliodWQiZbQpnpTVbb/jG+g0fMwga7nRk
4nd886sx0/R5sM9ghBiQ/o6tNgL/6UN9JztcelIszWJCiZVi/3Dzh8XC0dg2bAwY
J+cCTGXb58fJ209we9bG4Ia4Q8WB8BmKty18cLCgTUnjCko0ruzgiV/Ug9wefWmL
XY9uyCup7HGZbSpWir3wZo3nvSDWw63VYggXm6SXhtWgHwna+uChfe+OLjmNfrch
SWkOE8ZShYM6a0Ba9Ub6vy+bcI28mWeNDbqGkTv5T8bBqNY62pbU30pPgJHgyR4C
//Oqi530GeZdsEwc6QGL94U7p+I=
-----END X509 CRL-----
-----BEGIN X509 CRL-----
MIIB3DCBxQIBATANBgkqhkiG9w0BAQsFADCBgjELMAkGA1UEBhMCVUsxEDAOBgNV
BAgTB0VuZ2xhbmQxDzANBgNVBAcTBkxvbmRvbjEZMBcGA1UEChMQUXJlZG8gTHRk
IChUZXN0KTEWMBQGA1UECxMNRGV2IFVuaXQgVGVzdDEdMBsGA1UEAxMUVGVzdElu
dGVybWVkaWF0ZUNBLTEXDTE1MDQyMjE0MTQ1NVoXDTE1MDUyMjE0MTQ1NVqgDjAM
MAoGA1UdFAQDAgECMA0GCSqGSIb3DQEBCwUAA4IBAQCzuCsRh+D3DsR+3RChF8ED
U36ci5lUI+M4k4t0PHcNJA+6O4joudTAyWqnuDnku+lDDWVLVPeCVpDsyPFS0BWB
R0DWB0Oj2rXeaITVoUmKpqnxrHDgPsDYlMd0berq4EW5zq7v5ni+c2lRz6HD5QVo
NfwoKDyEVsQACULFc/nUuIiUEX95paHI+eSOsr496SwEHROztkFHolKnpKIV3NJK
fiqT8L4K2QsKriNSbw73DEpsHnEPONtk2vomcNls+B1hMzHauMdTDtmEjM4HUzcG
phjfMXWrGZhiOmwf+DC7FoUNqbzW+WD0dzRpDYMXQDvP/bX6mFs0SNSI8fggau/b
-----END X509 CRL-----
