Certificate:
    Data:
        Version: 3 (0x2)
        Serial Number:
            b1:7c:fc:ea:a2:27:87:e0
        Signature Algorithm: sha256WithRSAEncryption
        Issuer: C=UK, ST=England, O=Qredo Ltd (Test), OU=Dev Unit Test, CN=TestRootCA
        Validity
            Not Before: Dec 14 11:46:05 2015 GMT
            Not After : Dec 13 11:46:05 2018 GMT
        Subject: C=UK, ST=England, L=London, O=Qredo Ltd (Test), OU=Dev Unit Test, CN=TestIntermediateCA-2
        Subject Public Key Info:
            Public Key Algorithm: rsaEncryption
            RSA Public Key: (2048 bit)
                Modulus (2048 bit):
                    00:ad:d1:f7:b9:01:de:c7:f2:c2:bb:63:36:85:e6:
                    8f:58:8a:51:28:d2:74:1f:94:05:48:4b:4e:69:75:
                    03:96:6c:1c:a9:52:d4:5d:f6:05:3a:93:86:ce:b4:
                    30:8f:f1:19:ba:0c:fd:6c:bf:c1:ea:ff:00:a3:d9:
                    b3:27:4e:4d:8b:b5:9f:0f:0b:64:f1:2d:6a:77:f8:
                    29:0e:48:74:61:3c:48:c6:3f:a1:c5:a2:54:5b:68:
                    36:23:5a:16:1f:ec:f8:55:2c:03:98:61:9c:0a:a4:
                    80:df:99:8a:2f:03:c4:ef:8c:21:87:4b:4a:cf:90:
                    0b:fd:0c:36:b9:73:66:63:fe:8e:02:f4:f6:73:e2:
                    85:8b:32:98:0a:16:e4:24:47:f5:06:51:70:13:ae:
                    67:9d:08:bb:28:27:6a:65:9f:41:00:c1:11:29:51:
                    ec:39:69:b0:5a:53:1f:1d:90:e0:c1:6a:98:58:5c:
                    ac:58:c2:4e:ef:e7:3b:68:d4:9b:a5:92:24:50:63:
                    e3:bc:16:7b:40:71:f7:d7:47:5e:0b:2a:d9:ac:e6:
                    26:41:fc:42:1f:44:9f:b1:1a:3b:35:7b:f8:5e:fa:
                    f5:f8:64:00:39:24:95:07:e6:f4:68:9b:1a:f2:94:
                    02:72:b0:95:79:25:8e:e2:31:9a:66:99:0d:06:31:
                    d2:1f
                Exponent: 65537 (0x10001)
        X509v3 extensions:
            X509v3 Subject Key Identifier: 
                9F:9F:E2:92:5B:2C:08:3F:8D:7D:56:52:CB:AE:AE:D8:F0:3D:3D:36
            X509v3 Authority Key Identifier: 
                keyid:24:E9:3E:16:C6:D1:B6:9C:11:AD:EE:EF:F6:EB:C5:14:0A:E1:50:4E
                DirName:/C=UK/ST=England/O=Qredo Ltd (Test)/OU=Dev Unit Test/CN=TestRootCA
                serial:B1:7C:FC:EA:A2:27:87:DE

            X509v3 Basic Constraints: 
                CA:TRUE
            X509v3 Subject Alternative Name: 
                DNS:qredo.com
    Signature Algorithm: sha256WithRSAEncryption
        4b:81:8d:0a:0e:4c:01:28:cb:b8:fb:4d:7b:9f:b5:2e:8a:5a:
        d4:18:d4:96:5d:93:76:14:14:e7:46:59:43:5e:3b:c8:32:d1:
        2a:fe:e9:23:c2:bb:39:8b:3f:02:46:40:27:08:eb:95:0b:1c:
        82:f1:5c:ac:24:75:6e:5e:b5:79:9d:8f:39:c1:55:6c:af:f8:
        c8:80:e4:06:4f:44:2d:1a:a9:bb:30:6c:97:18:09:d4:24:22:
        12:7c:b6:8a:bf:cb:0d:df:24:00:1a:c1:0a:f5:04:fd:8a:e1:
        01:a8:13:73:48:65:90:25:f2:16:36:20:59:6f:f4:7d:3f:9a:
        42:88:7b:c5:8a:a8:ad:20:86:02:30:f6:c9:9a:b1:8b:a7:3d:
        58:8b:55:87:b2:6f:02:b6:01:4b:65:8c:af:ec:79:22:36:31:
        ea:84:4e:8b:74:a3:b2:e0:4c:46:3a:6a:d5:a7:f6:a7:18:f8:
        94:63:0e:9c:5f:30:b2:87:db:66:72:64:ef:b2:67:84:3d:25:
        0e:35:ac:9d:ff:54:8b:d1:c9:ab:a5:1f:0c:56:93:db:47:40:
        70:59:a6:19:aa:2e:ec:65:8f:5d:9d:17:e2:98:18:10:c0:ae:
        d0:bf:43:a6:9b:28:f9:5d:19:fd:c4:6e:57:19:0e:38:83:f6:
        07:8c:fb:bd
-----BEGIN CERTIFICATE-----
MIIEUDCCAzigAwIBAgIJALF8/OqiJ4fgMA0GCSqGSIb3DQEBCwUAMGcxCzAJBgNV
BAYTAlVLMRAwDgYDVQQIEwdFbmdsYW5kMRkwFwYDVQQKExBRcmVkbyBMdGQgKFRl
c3QpMRYwFAYDVQQLEw1EZXYgVW5pdCBUZXN0MRMwEQYDVQQDEwpUZXN0Um9vdENB
MB4XDTE1MTIxNDExNDYwNVoXDTE4MTIxMzExNDYwNVowgYIxCzAJBgNVBAYTAlVL
MRAwDgYDVQQIEwdFbmdsYW5kMQ8wDQYDVQQHEwZMb25kb24xGTAXBgNVBAoTEFFy
ZWRvIEx0ZCAoVGVzdCkxFjAUBgNVBAsTDURldiBVbml0IFRlc3QxHTAbBgNVBAMT
FFRlc3RJbnRlcm1lZGlhdGVDQS0yMIIBIjANBgkqhkiG9w0BAQEFAAOCAQ8AMIIB
CgKCAQEArdH3uQHex/LCu2M2heaPWIpRKNJ0H5QFSEtOaXUDlmwcqVLUXfYFOpOG
zrQwj/EZugz9bL/B6v8Ao9mzJ05Ni7WfDwtk8S1qd/gpDkh0YTxIxj+hxaJUW2g2
I1oWH+z4VSwDmGGcCqSA35mKLwPE74whh0tKz5AL/Qw2uXNmY/6OAvT2c+KFizKY
ChbkJEf1BlFwE65nnQi7KCdqZZ9BAMERKVHsOWmwWlMfHZDgwWqYWFysWMJO7+c7
aNSbpZIkUGPjvBZ7QHH310deCyrZrOYmQfxCH0SfsRo7NXv4Xvr1+GQAOSSVB+b0
aJsa8pQCcrCVeSWO4jGaZpkNBjHSHwIDAQABo4HiMIHfMB0GA1UdDgQWBBSfn+KS
WywIP419VlLLrq7Y8D09NjCBmQYDVR0jBIGRMIGOgBQk6T4WxtG2nBGt7u/268UU
CuFQTqFrpGkwZzELMAkGA1UEBhMCVUsxEDAOBgNVBAgTB0VuZ2xhbmQxGTAXBgNV
BAoTEFFyZWRvIEx0ZCAoVGVzdCkxFjAUBgNVBAsTDURldiBVbml0IFRlc3QxEzAR
BgNVBAMTClRlc3RSb290Q0GCCQCxfPzqoieH3jAMBgNVHRMEBTADAQH/MBQGA1Ud
EQQNMAuCCXFyZWRvLmNvbTANBgkqhkiG9w0BAQsFAAOCAQEAS4GNCg5MASjLuPtN
e5+1Lopa1BjUll2TdhQU50ZZQ147yDLRKv7pI8K7OYs/AkZAJwjrlQscgvFcrCR1
bl61eZ2POcFVbK/4yIDkBk9ELRqpuzBslxgJ1CQiEny2ir/LDd8kABrBCvUE/Yrh
AagTc0hlkCXyFjYgWW/0fT+aQoh7xYqorSCGAjD2yZqxi6c9WItVh7JvArYBS2WM
r+x5IjYx6oROi3SjsuBMRjpq1af2pxj4lGMOnF8wsofbZnJk77JnhD0lDjWsnf9U
i9HJq6UfDFaT20dAcFmmGaou7GWPXZ0X4pgYEMCu0L9Dppso+V0Z/cRuVxkOOIP2
B4z7vQ==
-----END CERTIFICATE-----
