Certificate:
    Data:
        Version: 3 (0x2)
        Serial Number:
            f4:15:03:b2:86:25:4f:00
        Signature Algorithm: sha256WithRSAEncryption
        Issuer: C=UK, ST=England, O=Qredo Ltd (Test), OU=Dev Unit Test, CN=TestRootCA
        Validity
            Not Before: Apr 22 14:14:56 2015 GMT
            Not After : Apr 21 14:14:56 2018 GMT
        Subject: C=UK, ST=England, L=London, O=Qredo Ltd (Test), OU=Dev Unit Test, CN=TestIntermediateCA-2
        Subject Public Key Info:
            Public Key Algorithm: rsaEncryption
            RSA Public Key: (2048 bit)
                Modulus (2048 bit):
                    00:b1:97:3f:4b:0b:c8:70:72:c0:3d:ab:ac:5b:1e:
                    79:2c:14:f1:ba:d0:c8:ab:36:19:d0:60:29:7e:07:
                    c6:57:96:11:e2:f1:2c:d4:ee:94:e4:20:8e:07:ff:
                    68:d6:1f:a1:5a:45:1c:b2:25:d2:ab:45:60:0b:2f:
                    5c:92:bf:f7:6d:56:63:c9:a1:e1:44:f2:8e:b1:97:
                    6f:92:b6:c8:74:b9:5d:33:15:aa:aa:00:8e:8a:ea:
                    5c:f7:bb:ae:85:c1:db:02:da:98:09:29:d3:c0:27:
                    af:2d:88:5e:ed:44:1e:41:5f:5c:04:2c:e3:f8:8b:
                    13:4b:a2:b4:21:2e:5f:3f:47:d9:02:7c:94:54:10:
                    c2:10:a4:05:8c:a4:7e:64:1b:c4:41:11:e4:2e:75:
                    e5:8f:73:78:91:20:45:4e:34:a7:a7:22:91:bc:76:
                    78:83:14:69:0d:f1:2a:8e:d8:c4:3e:08:a6:5a:0f:
                    66:73:9d:5c:9e:d0:86:f0:ca:01:b1:7e:1d:f4:59:
                    d8:c2:93:72:9a:89:63:0e:f2:62:ee:af:ab:7f:d8:
                    29:b2:f1:05:f8:ad:ad:fb:31:6d:55:b9:67:7d:9e:
                    d1:dc:5d:f5:b3:8e:52:84:3b:da:e8:b7:fb:c2:88:
                    0a:15:36:a0:6d:d4:d5:b7:ac:62:fd:ea:b0:1f:b6:
                    d4:b3
                Exponent: 65537 (0x10001)
        X509v3 extensions:
            X509v3 Subject Key Identifier: 
                B6:3D:88:CF:7B:13:AF:95:18:9D:14:D5:AD:17:57:C4:AB:AD:D3:81
            X509v3 Authority Key Identifier: 
                keyid:5B:7D:72:FC:6A:C3:45:43:B8:52:1A:62:64:FB:24:1A:A3:8A:F6:7C
                DirName:/C=UK/ST=England/O=Qredo Ltd (Test)/OU=Dev Unit Test/CN=TestRootCA
                serial:F4:15:03:B2:86:25:4E:FE

            X509v3 Basic Constraints: 
                CA:TRUE
            X509v3 Subject Alternative Name: 
                email:admin@qredo.com
    Signature Algorithm: sha256WithRSAEncryption
        32:be:13:b2:10:30:d7:77:a4:21:ec:43:18:48:46:41:29:9b:
        fd:1c:ed:4a:02:ea:6d:7c:92:e1:2d:1c:81:31:45:89:cd:9e:
        0e:f1:11:69:df:58:80:e0:3c:7a:d1:8d:76:d4:d7:97:63:00:
        bb:fd:7e:ab:f9:9c:81:08:f4:a2:1b:8b:fd:55:94:3b:f2:11:
        ad:25:0c:b3:c4:14:f6:4a:f8:d3:84:9a:a7:49:54:da:49:9c:
        1d:e4:67:fe:69:18:b4:15:dc:c9:2a:9d:c8:61:8f:f4:d8:ae:
        80:8d:04:4b:da:4c:62:79:80:87:0d:76:05:7c:06:c1:d9:d4:
        d6:84:4f:c1:22:fb:20:3c:4d:00:c7:68:2f:5e:cd:24:1e:b7:
        22:e3:e1:cd:5c:2c:c3:6a:70:86:a1:bb:73:f8:c0:19:ca:f5:
        a3:c2:4a:66:2d:22:3b:10:5b:0f:f9:22:12:90:3b:86:15:7b:
        d5:7c:a9:a8:ca:ad:42:1e:00:b8:97:a2:18:5f:75:3a:98:8d:
        58:e2:61:e6:d9:a5:34:57:8a:ac:53:0c:c7:b4:22:50:f6:d4:
        30:5d:3e:f6:07:ff:50:a7:6d:5f:fc:7d:eb:ad:64:a5:b4:43:
        d7:15:0f:6e:02:3f:97:75:0e:63:35:c3:68:67:6a:45:85:f1:
        1d:93:4c:c7
-----BEGIN CERTIFICATE-----
MIIEVjCCAz6gAwIBAgIJAPQVA7KGJU8AMA0GCSqGSIb3DQEBCwUAMGcxCzAJBgNV
BAYTAlVLMRAwDgYDVQQIEwdFbmdsYW5kMRkwFwYDVQQKExBRcmVkbyBMdGQgKFRl
c3QpMRYwFAYDVQQLEw1EZXYgVW5pdCBUZXN0MRMwEQYDVQQDEwpUZXN0Um9vdENB
MB4XDTE1MDQyMjE0MTQ1NloXDTE4MDQyMTE0MTQ1NlowgYIxCzAJBgNVBAYTAlVL
MRAwDgYDVQQIEwdFbmdsYW5kMQ8wDQYDVQQHEwZMb25kb24xGTAXBgNVBAoTEFFy
ZWRvIEx0ZCAoVGVzdCkxFjAUBgNVBAsTDURldiBVbml0IFRlc3QxHTAbBgNVBAMT
FFRlc3RJbnRlcm1lZGlhdGVDQS0yMIIBIjANBgkqhkiG9w0BAQEFAAOCAQ8AMIIB
CgKCAQEAsZc/SwvIcHLAPausWx55LBTxutDIqzYZ0GApfgfGV5YR4vEs1O6U5CCO
B/9o1h+hWkUcsiXSq0VgCy9ckr/3bVZjyaHhRPKOsZdvkrbIdLldMxWqqgCOiupc
97uuhcHbAtqYCSnTwCevLYhe7UQeQV9cBCzj+IsTS6K0IS5fP0fZAnyUVBDCEKQF
jKR+ZBvEQRHkLnXlj3N4kSBFTjSnpyKRvHZ4gxRpDfEqjtjEPgimWg9mc51cntCG
8MoBsX4d9FnYwpNymoljDvJi7q+rf9gpsvEF+K2t+zFtVblnfZ7R3F31s45ShDva
6Lf7wogKFTagbdTVt6xi/eqwH7bUswIDAQABo4HoMIHlMB0GA1UdDgQWBBS2PYjP
exOvlRidFNWtF1fEq63TgTCBmQYDVR0jBIGRMIGOgBRbfXL8asNFQ7hSGmJk+yQa
o4r2fKFrpGkwZzELMAkGA1UEBhMCVUsxEDAOBgNVBAgTB0VuZ2xhbmQxGTAXBgNV
BAoTEFFyZWRvIEx0ZCAoVGVzdCkxFjAUBgNVBAsTDURldiBVbml0IFRlc3QxEzAR
BgNVBAMTClRlc3RSb290Q0GCCQD0FQOyhiVO/jAMBgNVHRMEBTADAQH/MBoGA1Ud
EQQTMBGBD2FkbWluQHFyZWRvLmNvbTANBgkqhkiG9w0BAQsFAAOCAQEAMr4TshAw
13ekIexDGEhGQSmb/RztSgLqbXyS4S0cgTFFic2eDvERad9YgOA8etGNdtTXl2MA
u/1+q/mcgQj0ohuL/VWUO/IRrSUMs8QU9kr404Sap0lU2kmcHeRn/mkYtBXcySqd
yGGP9NiugI0ES9pMYnmAhw12BXwGwdnU1oRPwSL7IDxNAMdoL17NJB63IuPhzVws
w2pwhqG7c/jAGcr1o8JKZi0iOxBbD/kiEpA7hhV71XypqMqtQh4AuJeiGF91OpiN
WOJh5tmlNFeKrFMMx7QiUPbUMF0+9gf/UKdtX/x9661kpbRD1xUPbgI/l3UOYzXD
aGdqRYXxHZNMxw==
-----END CERTIFICATE-----
