Certificate:
    Data:
        Version: 3 (0x2)
        Serial Number:
            b1:7c:fc:ea:a2:27:87:e3
        Signature Algorithm: sha256WithRSAEncryption
        Issuer: C=UK, ST=England, L=London, O=Qredo Ltd (Test), OU=Dev Unit Test, CN=TestIntermediateCA-1
        Validity
            Not Before: Dec 14 11:46:06 2015 GMT
            Not After : Dec 13 11:46:06 2018 GMT
        Subject: C=UK, ST=England, L=London, O=Qredo Ltd (Test), OU=Dev Unit Test, CN=TestCert3 using Intermediate CA 1
        Subject Public Key Info:
            Public Key Algorithm: rsaEncryption
            RSA Public Key: (4096 bit)
                Modulus (4096 bit):
                    00:b5:7a:ee:2f:f2:4d:f3:6a:61:4c:1e:50:cc:8c:
                    91:3a:ce:ab:f8:0b:03:93:e6:24:d5:af:fb:78:6f:
                    a7:76:02:9c:94:dd:4e:aa:52:5c:70:4a:d9:f6:38:
                    d9:d0:ab:9c:1e:c6:f0:92:18:50:e8:0f:42:6a:30:
                    ab:1f:37:61:dc:0c:f2:a0:8e:3e:5c:f6:84:f0:b4:
                    c4:e5:41:3f:f2:c0:39:88:63:10:b1:fd:9b:0d:46:
                    78:aa:20:73:8a:61:7c:f2:18:0b:fc:a0:30:d0:ba:
                    ae:1f:ff:da:69:ba:b3:c8:86:47:35:b9:6b:83:0f:
                    19:28:b5:f0:ed:90:a8:f9:11:c6:8c:ac:0b:ac:f1:
                    43:99:3f:c2:2d:b7:3e:56:7b:0e:6b:43:7f:d2:de:
                    79:32:78:b1:88:05:c0:0e:2f:fc:92:ca:52:69:6d:
                    57:b4:9e:21:05:2c:49:30:0e:39:50:ce:f2:54:62:
                    2e:ee:cd:ff:6d:f4:23:55:e6:d9:c9:1a:a5:83:ec:
                    9f:03:64:c3:46:01:90:9a:47:25:90:f7:fd:dd:4b:
                    08:28:9d:5f:5d:00:e8:fd:38:5d:c9:02:b3:08:fd:
                    ef:7c:fe:2f:8b:b2:e9:90:71:76:c0:9c:0e:2b:ed:
                    6c:8e:cc:ca:be:6d:7f:82:32:05:a7:dc:78:cf:50:
                    88:56:f1:2d:0c:b5:ed:48:51:00:6f:35:65:61:6b:
                    56:39:e6:5d:28:2c:0d:bd:53:b4:8b:e6:f7:f4:a9:
                    72:77:f6:2b:ab:8b:0e:e2:d2:7f:83:7d:78:f8:b7:
                    73:dc:cd:ff:4c:59:46:33:fd:ab:3c:7b:d9:11:cb:
                    7c:35:7a:98:af:8b:6e:a4:e6:e7:bf:d5:73:73:64:
                    7e:80:e8:9f:b1:ee:bb:fe:45:6d:ea:02:fb:88:05:
                    a7:7c:16:a2:f6:47:44:17:2c:1f:09:12:82:c8:b0:
                    08:db:d0:8c:6c:8c:2f:4b:be:c4:21:f3:50:c4:74:
                    f1:72:15:93:34:fe:9f:27:ac:50:8d:f6:14:cd:f9:
                    89:dd:ef:cf:46:e3:4b:ab:52:b9:9d:39:c1:8f:23:
                    44:cc:e8:23:e2:7c:d6:79:98:f5:26:37:2e:9c:b6:
                    19:7f:7a:aa:ff:db:bc:c9:d7:f0:a6:ea:19:74:c0:
                    33:44:2b:a3:d9:7e:01:04:b1:da:19:bf:80:d0:7c:
                    43:40:e7:4d:78:25:1c:2f:fd:53:2f:07:8d:10:0d:
                    42:46:52:ad:8a:18:90:7b:d2:a3:16:55:e9:e3:84:
                    ee:d0:d7:a2:8d:08:92:5e:c9:b6:4d:bf:86:7a:62:
                    d0:42:54:80:ea:42:b0:09:7f:0d:57:b2:8c:79:b9:
                    19:7c:77
                Exponent: 65537 (0x10001)
        X509v3 extensions:
            X509v3 Basic Constraints: 
                CA:FALSE
            X509v3 Subject Key Identifier: 
                AC:CA:AC:8E:7B:28:6C:54:01:19:3C:34:87:16:F2:89:40:3F:07:EC
            X509v3 Authority Key Identifier: 
                keyid:E6:07:E1:77:B0:98:5A:8D:B3:E0:79:F6:D7:73:7B:42:C3:74:27:F1

            X509v3 Subject Alternative Name: 
                email:admin@qredo.com
    Signature Algorithm: sha256WithRSAEncryption
        72:f3:54:7c:41:7c:88:d7:fc:c2:2c:c5:1c:e1:e2:6a:c2:af:
        43:92:70:3d:b3:71:26:8c:80:85:ca:3b:95:bd:c0:a9:6c:57:
        c8:0e:79:45:9f:df:34:12:11:51:3d:a2:09:65:5c:2c:a2:be:
        18:ef:be:8f:9a:48:94:0d:70:2b:24:89:ab:77:7e:79:1f:e6:
        5d:9f:97:96:e1:a0:8d:21:ee:e0:c6:45:7a:c3:42:54:ab:7e:
        2e:74:82:51:54:82:b5:16:f8:15:71:b0:0c:47:d8:44:37:65:
        d9:bd:14:ca:17:99:47:6b:ce:ac:e7:c3:86:de:c4:28:b9:f1:
        fe:df:be:1a:d3:3c:ac:31:ee:79:a0:5b:ad:b3:b6:fd:c0:e3:
        67:45:58:fb:35:bd:33:ed:89:df:49:57:14:06:5a:dc:01:75:
        ee:cc:0e:21:4a:03:f6:40:e1:8d:08:99:03:4a:a4:ca:f8:c5:
        5e:9d:ff:8a:14:36:d3:d3:8a:1a:d7:48:42:1b:dc:8a:a4:31:
        fc:12:f1:51:cd:66:ed:b6:38:79:17:08:1f:6c:7d:b2:a8:6f:
        28:7b:80:8f:be:f6:28:0f:4e:f3:9e:ed:70:2f:35:76:29:de:
        9c:7c:4e:22:5d:c1:f7:2f:a8:ed:fe:76:87:3b:a1:b2:0d:90:
        bc:f5:c0:50
-----BEGIN CERTIFICATE-----
MIIE/zCCA+egAwIBAgIJALF8/OqiJ4fjMA0GCSqGSIb3DQEBCwUAMIGCMQswCQYD
VQQGEwJVSzEQMA4GA1UECBMHRW5nbGFuZDEPMA0GA1UEBxMGTG9uZG9uMRkwFwYD
VQQKExBRcmVkbyBMdGQgKFRlc3QpMRYwFAYDVQQLEw1EZXYgVW5pdCBUZXN0MR0w
GwYDVQQDExRUZXN0SW50ZXJtZWRpYXRlQ0EtMTAeFw0xNTEyMTQxMTQ2MDZaFw0x
ODEyMTMxMTQ2MDZaMIGPMQswCQYDVQQGEwJVSzEQMA4GA1UECBMHRW5nbGFuZDEP
MA0GA1UEBxMGTG9uZG9uMRkwFwYDVQQKExBRcmVkbyBMdGQgKFRlc3QpMRYwFAYD
VQQLEw1EZXYgVW5pdCBUZXN0MSowKAYDVQQDEyFUZXN0Q2VydDMgdXNpbmcgSW50
ZXJtZWRpYXRlIENBIDEwggIiMA0GCSqGSIb3DQEBAQUAA4ICDwAwggIKAoICAQC1
eu4v8k3zamFMHlDMjJE6zqv4CwOT5iTVr/t4b6d2ApyU3U6qUlxwStn2ONnQq5we
xvCSGFDoD0JqMKsfN2HcDPKgjj5c9oTwtMTlQT/ywDmIYxCx/ZsNRniqIHOKYXzy
GAv8oDDQuq4f/9ppurPIhkc1uWuDDxkotfDtkKj5EcaMrAus8UOZP8Ittz5Wew5r
Q3/S3nkyeLGIBcAOL/ySylJpbVe0niEFLEkwDjlQzvJUYi7uzf9t9CNV5tnJGqWD
7J8DZMNGAZCaRyWQ9/3dSwgonV9dAOj9OF3JArMI/e98/i+LsumQcXbAnA4r7WyO
zMq+bX+CMgWn3HjPUIhW8S0Mte1IUQBvNWVha1Y55l0oLA29U7SL5vf0qXJ39iur
iw7i0n+DfXj4t3Pczf9MWUYz/as8e9kRy3w1epivi26k5ue/1XNzZH6A6J+x7rv+
RW3qAvuIBad8FqL2R0QXLB8JEoLIsAjb0IxsjC9LvsQh81DEdPFyFZM0/p8nrFCN
9hTN+Ynd789G40urUrmdOcGPI0TM6CPifNZ5mPUmNy6cthl/eqr/27zJ1/Cm6hl0
wDNEK6PZfgEEsdoZv4DQfENA5014JRwv/VMvB40QDUJGUq2KGJB70qMWVenjhO7Q
16KNCJJeybZNv4Z6YtBCVIDqQrAJfw1Xsox5uRl8dwIDAQABo2kwZzAJBgNVHRME
AjAAMB0GA1UdDgQWBBSsyqyOeyhsVAEZPDSHFvKJQD8H7DAfBgNVHSMEGDAWgBTm
B+F3sJhajbPgefbXc3tCw3Qn8TAaBgNVHREEEzARgQ9hZG1pbkBxcmVkby5jb20w
DQYJKoZIhvcNAQELBQADggEBAHLzVHxBfIjX/MIsxRzh4mrCr0OScD2zcSaMgIXK
O5W9wKlsV8gOeUWf3zQSEVE9ogllXCyivhjvvo+aSJQNcCskiat3fnkf5l2fl5bh
oI0h7uDGRXrDQlSrfi50glFUgrUW+BVxsAxH2EQ3Zdm9FMoXmUdrzqznw4bexCi5
8f7fvhrTPKwx7nmgW62ztv3A42dFWPs1vTPtid9JVxQGWtwBde7MDiFKA/ZA4Y0I
mQNKpMr4xV6d/4oUNtPTihrXSEIb3IqkMfwS8VHNZu22OHkXCB9sfbKobyh7gI++
9igPTvOe7XAvNXYp3px8TiJdwfcvqO3+doc7obINkLz1wFA=
-----END CERTIFICATE-----
