Certificate:
    Data:
        Version: 3 (0x2)
        Serial Number:
            f4:15:03:b2:86:25:4f:01
        Signature Algorithm: sha256WithRSAEncryption
        Issuer: C=UK, ST=England, L=London, O=Qredo Ltd (Test), OU=Dev Unit Test, CN=TestIntermediateCA-1
        Validity
            Not Before: Apr 22 14:14:56 2015 GMT
            Not After : Apr 21 14:14:56 2018 GMT
        Subject: C=UK, ST=England, L=London, O=Qredo Ltd (Test), OU=Dev Unit Test, CN=TestCert1 using Intermediate CA 1
        Subject Public Key Info:
            Public Key Algorithm: rsaEncryption
            RSA Public Key: (1024 bit)
                Modulus (1024 bit):
                    00:a2:90:7f:04:39:67:00:72:fb:03:f1:81:1b:4b:
                    65:8f:30:4d:b1:35:3a:c7:0a:7f:b0:72:ae:45:f2:
                    4e:19:39:fc:1c:b6:6e:f4:db:bc:21:15:a2:24:82:
                    86:ea:7f:18:3d:0d:8c:c9:05:25:ec:ef:62:10:08:
                    80:22:01:0c:1b:0d:7d:0b:63:66:93:52:7b:2d:20:
                    9c:ac:28:b0:5d:9e:54:59:5f:8b:03:48:0e:f4:02:
                    21:9b:5c:64:1d:cd:a2:6b:80:58:22:79:d8:4a:ec:
                    0c:f8:29:71:7f:60:4c:68:02:f7:62:4b:50:ea:0d:
                    1a:e9:0e:5a:87:ce:79:e8:f7
                Exponent: 65537 (0x10001)
        X509v3 extensions:
            X509v3 Basic Constraints: 
                CA:FALSE
            X509v3 Subject Key Identifier: 
                DD:9E:6B:14:9F:0E:5C:C3:61:04:34:DD:F1:88:E8:26:0E:65:8F:63
            X509v3 Authority Key Identifier: 
                keyid:40:8B:F2:3B:8C:84:A2:61:32:A1:29:C6:BC:DD:AF:8C:6B:7A:A1:F8

            X509v3 Subject Alternative Name: 
                email:admin@qredo.com
    Signature Algorithm: sha256WithRSAEncryption
        bc:94:2c:9b:00:9a:78:d6:21:ec:f0:d2:a2:cd:89:bb:da:79:
        70:95:be:d3:58:99:91:8d:0d:77:fa:1d:83:69:df:ff:9a:99:
        15:ed:44:25:1a:4c:6e:af:f8:1b:47:6f:a2:b7:ba:93:56:69:
        15:59:ef:b1:84:93:ba:99:29:14:83:51:9a:98:6f:5d:49:5a:
        cf:3c:10:a9:16:41:25:52:d8:52:eb:a6:44:29:6d:e6:08:b2:
        10:3b:4b:e4:36:96:a4:71:bd:fc:11:06:82:f3:d2:0a:2b:07:
        3f:e5:d1:cc:5f:bc:a8:52:5c:28:4b:ad:d9:ba:04:5b:b7:30:
        3d:d1:90:ca:77:e8:95:a7:98:1c:43:eb:a3:b3:af:1d:4b:1a:
        1c:e6:03:24:06:79:ad:5a:e4:d0:ea:31:2d:ec:22:61:2f:81:
        d3:39:68:08:c7:ba:82:d1:5a:32:3c:9d:73:cc:1c:87:7b:b9:
        af:a3:34:6a:0c:08:1c:b4:ef:64:d8:a5:16:a4:47:c4:3b:c9:
        93:0a:6d:c7:51:1b:c0:7f:96:4c:0e:61:f8:79:ce:e3:8e:45:
        44:0a:c1:e2:6c:66:3e:1e:65:59:ba:c1:8d:b2:f7:88:dc:3e:
        6e:ec:01:38:8d:48:1a:c4:ac:79:15:68:3b:7f:64:b0:43:c2:
        d6:98:08:8d
-----BEGIN CERTIFICATE-----
MIIDezCCAmOgAwIBAgIJAPQVA7KGJU8BMA0GCSqGSIb3DQEBCwUAMIGCMQswCQYD
VQQGEwJVSzEQMA4GA1UECBMHRW5nbGFuZDEPMA0GA1UEBxMGTG9uZG9uMRkwFwYD
VQQKExBRcmVkbyBMdGQgKFRlc3QpMRYwFAYDVQQLEw1EZXYgVW5pdCBUZXN0MR0w
GwYDVQQDExRUZXN0SW50ZXJtZWRpYXRlQ0EtMTAeFw0xNTA0MjIxNDE0NTZaFw0x
ODA0MjExNDE0NTZaMIGPMQswCQYDVQQGEwJVSzEQMA4GA1UECBMHRW5nbGFuZDEP
MA0GA1UEBxMGTG9uZG9uMRkwFwYDVQQKExBRcmVkbyBMdGQgKFRlc3QpMRYwFAYD
VQQLEw1EZXYgVW5pdCBUZXN0MSowKAYDVQQDEyFUZXN0Q2VydDEgdXNpbmcgSW50
ZXJtZWRpYXRlIENBIDEwgZ8wDQYJKoZIhvcNAQEBBQADgY0AMIGJAoGBAKKQfwQ5
ZwBy+wPxgRtLZY8wTbE1OscKf7ByrkXyThk5/By2bvTbvCEVoiSChup/GD0NjMkF
JezvYhAIgCIBDBsNfQtjZpNSey0gnKwosF2eVFlfiwNIDvQCIZtcZB3NomuAWCJ5
2ErsDPgpcX9gTGgC92JLUOoNGukOWofOeej3AgMBAAGjaTBnMAkGA1UdEwQCMAAw
HQYDVR0OBBYEFN2eaxSfDlzDYQQ03fGI6CYOZY9jMB8GA1UdIwQYMBaAFECL8juM
hKJhMqEpxrzdr4xreqH4MBoGA1UdEQQTMBGBD2FkbWluQHFyZWRvLmNvbTANBgkq
hkiG9w0BAQsFAAOCAQEAvJQsmwCaeNYh7PDSos2Ju9p5cJW+01iZkY0Nd/odg2nf
/5qZFe1EJRpMbq/4G0dvore6k1ZpFVnvsYSTupkpFINRmphvXUlazzwQqRZBJVLY
UuumRClt5giyEDtL5DaWpHG9/BEGgvPSCisHP+XRzF+8qFJcKEut2boEW7cwPdGQ
ynfolaeYHEPro7OvHUsaHOYDJAZ5rVrk0OoxLewiYS+B0zloCMe6gtFaMjydc8wc
h3u5r6M0agwIHLTvZNilFqRHxDvJkwptx1EbwH+WTA5h+HnO445FRArB4mxmPh5l
WbrBjbL3iNw+buwBOI1IGsSseRVoO39ksEPC1pgIjQ==
-----END CERTIFICATE-----
