Certificate:
    Data:
        Version: 3 (0x2)
        Serial Number:
            b1:7c:fc:ea:a2:27:87:e5
        Signature Algorithm: sha256WithRSAEncryption
        Issuer: C=UK, ST=England, L=London, O=Qredo Ltd (Test), OU=Dev Unit Test, CN=TestIntermediateCA-1
        Validity
            Not Before: Dec 14 11:46:27 2015 GMT
            Not After : Dec 13 11:46:27 2018 GMT
        Subject: C=UK, ST=England, L=London, O=Qredo Ltd (Test), OU=Dev Unit Test, CN=TestCert5 using Intermediate CA 1
        Subject Public Key Info:
            Public Key Algorithm: rsaEncryption
            RSA Public Key: (2048 bit)
                Modulus (2048 bit):
                    00:be:6f:38:98:60:fa:64:61:78:04:a2:f6:1a:3b:
                    d8:68:5a:f8:70:0d:c9:03:9e:e2:d6:d9:9f:d6:08:
                    24:e5:1f:81:4e:52:32:a6:dc:53:4e:10:30:4c:f5:
                    09:e8:67:97:c8:ff:00:8b:ff:05:01:0c:1e:29:b2:
                    9b:00:92:7a:78:31:be:20:d3:82:87:67:78:10:5b:
                    63:68:4c:59:74:18:0f:62:68:af:60:38:e4:a9:ea:
                    f4:77:f2:2f:3f:58:57:fb:78:6c:c9:6f:06:4f:14:
                    49:40:ec:d1:54:a4:33:ad:c4:a5:f2:78:a6:a2:3c:
                    07:a1:92:c0:bd:30:f7:27:3e:16:80:9c:4d:35:72:
                    23:c4:fb:fb:9d:b0:88:74:d8:52:36:1f:97:b0:a5:
                    81:57:d7:46:bb:e8:5c:85:85:8f:73:3c:1f:b9:1c:
                    3a:6f:35:b1:22:0e:3f:70:3b:59:a0:d6:00:82:bc:
                    3a:66:b6:7c:02:79:f6:a5:bf:cf:55:40:d9:bd:01:
                    14:d4:ad:77:65:2e:cb:82:34:b9:e8:16:e8:61:77:
                    6a:73:63:05:b6:37:2e:c4:67:33:30:7b:e1:fa:55:
                    cb:6b:43:88:88:08:07:55:00:0c:92:75:ff:94:5f:
                    1d:25:48:f2:fe:33:b3:d8:ff:40:e5:34:6e:4d:a1:
                    7e:1b
                Exponent: 65537 (0x10001)
        X509v3 extensions:
            X509v3 Basic Constraints: 
                CA:FALSE
            X509v3 Subject Key Identifier: 
                07:3C:EC:59:C9:01:54:94:18:69:0C:DF:A4:61:0E:3D:26:5D:EB:86
            X509v3 Authority Key Identifier: 
                keyid:E6:07:E1:77:B0:98:5A:8D:B3:E0:79:F6:D7:73:7B:42:C3:74:27:F1

            X509v3 Subject Alternative Name: 
                email:admin@qredo.com
    Signature Algorithm: sha256WithRSAEncryption
        8e:10:71:ea:6c:c8:ac:67:da:7a:e9:95:34:a9:61:61:80:f4:
        19:40:1b:fb:dd:40:73:81:c6:36:1f:b8:9b:73:c8:1e:12:8d:
        c8:b2:46:bc:16:7a:11:ae:89:de:f4:a6:7a:86:e2:0e:71:af:
        39:64:46:73:f9:a3:b8:10:4d:7a:95:1d:a7:f2:20:b6:f5:79:
        6d:49:8d:32:59:29:d1:cd:3e:9b:16:c6:2d:37:1f:68:7e:c2:
        5c:9b:e9:0a:54:97:98:42:0c:0e:f1:26:46:aa:c6:36:2e:a1:
        d4:5d:24:ec:9a:6e:69:9f:e5:6c:af:50:54:f2:6f:67:99:79:
        b5:f1:99:7a:74:7c:ef:6c:93:e2:48:04:a8:45:e7:ac:62:37:
        68:de:22:c8:59:68:89:88:38:13:db:99:a0:05:00:6f:6e:49:
        d3:d6:9d:89:e3:ea:13:77:3b:b4:46:67:50:5d:55:f9:76:5c:
        ed:af:54:87:56:8d:83:7d:2c:81:d4:d3:70:ac:16:bb:ac:16:
        6c:a8:a8:17:b2:41:e7:a3:59:d5:2d:a4:b7:c4:fe:28:e4:6f:
        24:42:de:80:d9:9c:a3:c5:b4:44:c7:c9:28:45:7c:eb:dd:cf:
        1d:63:30:d9:34:de:66:13:8c:d5:f3:f6:2f:63:8f:89:f3:50:
        f0:64:99:4b
-----BEGIN CERTIFICATE-----
MIID/zCCAuegAwIBAgIJALF8/OqiJ4flMA0GCSqGSIb3DQEBCwUAMIGCMQswCQYD
VQQGEwJVSzEQMA4GA1UECBMHRW5nbGFuZDEPMA0GA1UEBxMGTG9uZG9uMRkwFwYD
VQQKExBRcmVkbyBMdGQgKFRlc3QpMRYwFAYDVQQLEw1EZXYgVW5pdCBUZXN0MR0w
GwYDVQQDExRUZXN0SW50ZXJtZWRpYXRlQ0EtMTAeFw0xNTEyMTQxMTQ2MjdaFw0x
ODEyMTMxMTQ2MjdaMIGPMQswCQYDVQQGEwJVSzEQMA4GA1UECBMHRW5nbGFuZDEP
MA0GA1UEBxMGTG9uZG9uMRkwFwYDVQQKExBRcmVkbyBMdGQgKFRlc3QpMRYwFAYD
VQQLEw1EZXYgVW5pdCBUZXN0MSowKAYDVQQDEyFUZXN0Q2VydDUgdXNpbmcgSW50
ZXJtZWRpYXRlIENBIDEwggEiMA0GCSqGSIb3DQEBAQUAA4IBDwAwggEKAoIBAQC+
bziYYPpkYXgEovYaO9hoWvhwDckDnuLW2Z/WCCTlH4FOUjKm3FNOEDBM9QnoZ5fI
/wCL/wUBDB4pspsAknp4Mb4g04KHZ3gQW2NoTFl0GA9iaK9gOOSp6vR38i8/WFf7
eGzJbwZPFElA7NFUpDOtxKXyeKaiPAehksC9MPcnPhaAnE01ciPE+/udsIh02FI2
H5ewpYFX10a76FyFhY9zPB+5HDpvNbEiDj9wO1mg1gCCvDpmtnwCefalv89VQNm9
ARTUrXdlLsuCNLnoFuhhd2pzYwW2Ny7EZzMwe+H6VctrQ4iICAdVAAySdf+UXx0l
SPL+M7PY/0DlNG5NoX4bAgMBAAGjaTBnMAkGA1UdEwQCMAAwHQYDVR0OBBYEFAc8
7FnJAVSUGGkM36RhDj0mXeuGMB8GA1UdIwQYMBaAFOYH4XewmFqNs+B59tdze0LD
dCfxMBoGA1UdEQQTMBGBD2FkbWluQHFyZWRvLmNvbTANBgkqhkiG9w0BAQsFAAOC
AQEAjhBx6mzIrGfaeumVNKlhYYD0GUAb+91Ac4HGNh+4m3PIHhKNyLJGvBZ6Ea6J
3vSmeobiDnGvOWRGc/mjuBBNepUdp/IgtvV5bUmNMlkp0c0+mxbGLTcfaH7CXJvp
ClSXmEIMDvEmRqrGNi6h1F0k7JpuaZ/lbK9QVPJvZ5l5tfGZenR872yT4kgEqEXn
rGI3aN4iyFloiYg4E9uZoAUAb25J09adiePqE3c7tEZnUF1V+XZc7a9Uh1aNg30s
gdTTcKwWu6wWbKioF7JB56NZ1S2kt8T+KORvJELegNmco8W0RMfJKEV8693PHWMw
2TTeZhOM1fP2L2OPifNQ8GSZSw==
-----END CERTIFICATE-----
