Certificate:
    Data:
        Version: 3 (0x2)
        Serial Number:
            b1:7c:fc:ea:a2:27:87:e4
        Signature Algorithm: sha256WithRSAEncryption
        Issuer: C=UK, ST=England, L=London, O=Qredo Ltd (Test), OU=Dev Unit Test, CN=TestIntermediateCA-1
        Validity
            Not Before: Dec 14 11:46:27 2015 GMT
            Not After : Dec 13 11:46:27 2018 GMT
        Subject: C=UK, ST=England, L=London, O=Qredo Ltd (Test), OU=Dev Unit Test, CN=TestCert4 using Intermediate CA 1
        Subject Public Key Info:
            Public Key Algorithm: rsaEncryption
            RSA Public Key: (8192 bit)
                Modulus (8192 bit):
                    00:9d:f8:ea:ca:c8:3a:95:71:27:5d:f1:6e:15:cf:
                    13:91:26:41:b4:94:98:18:9e:c0:81:08:93:60:fa:
                    f3:6d:e5:49:c8:2e:ec:98:ab:f5:40:45:f5:9c:96:
                    b7:b7:32:17:05:a1:d1:1b:7b:4d:28:39:fe:94:d9:
                    cf:b9:91:36:6d:10:ee:d4:9c:2c:4f:3e:bf:2f:b9:
                    ca:d3:5b:86:32:55:91:17:38:8d:33:10:a4:f0:62:
                    19:6a:11:73:fa:49:89:ce:25:56:ca:d0:71:18:2b:
                    b3:63:a5:5d:8d:ab:85:75:60:49:27:a1:28:8c:9d:
                    59:86:8d:bd:09:4b:c6:f3:76:5c:4e:07:fa:17:f7:
                    53:42:cf:79:64:92:63:0f:91:77:c3:36:e6:ee:62:
                    c5:c7:49:08:d4:97:8f:0d:c6:46:57:3b:8a:ec:d9:
                    fd:f3:31:3f:11:bb:49:07:d3:3c:83:85:2b:47:67:
                    e5:70:ed:d0:9f:37:f5:3d:ae:b4:33:49:b8:0a:22:
                    cf:f9:d5:e3:50:65:24:af:84:a8:67:71:2b:dd:8f:
                    ea:bb:be:7e:4c:e8:89:43:b2:97:27:f3:c2:7a:f9:
                    19:9d:3b:6f:0e:01:42:ce:3f:e9:95:77:00:8f:60:
                    e4:cb:5b:08:36:15:40:63:95:58:59:cb:d3:0f:a0:
                    fe:1d:f5:1d:e7:31:af:0b:4e:5e:fb:44:dc:95:41:
                    88:e5:49:cd:49:11:79:26:0b:78:2d:3b:c5:63:a3:
                    f9:62:75:96:c0:7a:35:71:c2:d5:87:1c:89:f1:65:
                    da:e1:37:7c:b8:36:58:06:b7:ab:5c:22:00:0d:08:
                    84:25:99:2a:ad:21:5d:58:a7:0e:6a:f9:b2:7c:9f:
                    a1:0d:95:cd:52:09:b0:7e:1a:de:a6:e1:30:bf:e4:
                    43:9a:df:54:bf:68:83:16:00:78:1d:c7:14:ec:70:
                    1f:44:fe:25:a0:59:50:3d:4a:fe:48:c5:47:f7:8e:
                    99:d4:e9:79:21:d9:37:e7:d7:96:a1:53:43:b8:da:
                    0f:c3:bf:cc:96:ed:62:e7:17:eb:5b:9d:d0:fa:92:
                    f0:a9:15:6d:70:be:52:54:6c:af:e3:4e:4e:f9:21:
                    89:d2:73:ac:c3:3c:db:33:76:0f:1c:4b:c9:9d:d1:
                    6d:8b:e2:aa:9c:4a:98:79:e8:33:d7:de:96:40:d2:
                    8d:ce:e9:0b:6c:e5:4f:4a:81:eb:93:ec:0f:35:34:
                    15:c3:14:74:db:20:f8:8f:aa:66:e2:4e:08:2d:ce:
                    ab:51:11:24:f8:29:f3:7b:b8:47:a2:91:66:78:a4:
                    a0:35:59:d1:e3:f1:92:25:4e:44:76:ca:99:32:ba:
                    d8:23:c1:ce:a6:54:f5:d4:6c:ec:1f:1f:67:d1:3a:
                    f2:0b:bf:6f:b2:a1:b9:31:64:4d:c6:62:09:da:28:
                    76:51:fa:29:09:b6:2c:25:fb:3c:65:b2:66:e3:b2:
                    2d:19:d5:37:9b:f9:f2:aa:79:30:e1:d9:bf:27:87:
                    60:d8:28:17:6d:cb:42:6e:a8:9b:66:5a:80:25:c5:
                    7c:db:a1:63:52:a0:1d:ad:52:a5:f8:31:df:dc:cc:
                    a5:96:57:c4:32:34:07:7a:79:9c:50:b7:c9:1d:6a:
                    8c:54:b1:cc:85:34:b0:76:10:8b:3a:ac:4b:d7:7d:
                    da:8a:a5:7b:db:b1:53:5d:b9:4d:4a:32:2e:61:3f:
                    c9:0d:63:22:c3:1d:3a:73:71:a9:21:34:4c:54:35:
                    99:20:1e:27:61:38:98:da:6a:df:46:9b:89:02:20:
                    fd:47:0d:16:3b:b6:78:bf:5f:10:60:2c:7a:79:a2:
                    7d:c8:17:29:0b:14:b9:a5:44:09:f8:35:9f:32:94:
                    54:06:4a:07:7e:af:dd:2d:53:2c:cb:46:ed:53:90:
                    11:5f:83:b8:34:6a:1a:73:65:1c:72:20:79:e7:65:
                    19:7d:51:8c:48:af:62:47:d8:3a:a3:b2:68:cd:2b:
                    83:71:26:6e:ab:e5:e4:ef:92:5a:2a:e5:77:31:f3:
                    cd:01:79:c8:c7:81:86:5c:05:86:68:a3:da:c6:15:
                    6d:6e:06:c1:db:c1:8b:07:13:73:1f:bf:f1:93:21:
                    93:0d:23:a5:fe:1f:93:21:59:05:78:08:bb:d4:65:
                    e4:67:f9:0b:4e:39:ed:d5:78:fc:57:fe:1d:f3:75:
                    86:5f:44:cb:8a:97:ca:e1:77:64:43:8f:9f:fa:d7:
                    87:6b:10:a8:aa:f9:47:67:7b:18:6a:17:2c:dc:50:
                    df:60:ac:96:fa:60:f5:1d:2e:58:b6:cc:cc:89:cf:
                    5d:8f:94:95:bb:1c:7c:47:79:1e:2c:3c:49:15:79:
                    c0:ec:4d:08:f0:3b:86:b2:48:bb:9b:0a:dc:46:ca:
                    cc:c5:8b:92:c1:20:34:f7:56:8d:2c:e0:1d:47:04:
                    79:90:ec:37:94:bb:fc:88:51:72:cc:b2:fb:bc:43:
                    f1:0d:16:34:f7:77:4c:7c:50:38:49:ab:1b:31:0d:
                    30:04:ea:7f:05:ae:b2:7b:49:54:2a:6f:dd:90:c0:
                    a1:53:a3:4e:b9:1a:0e:5a:ef:97:d5:ed:15:cb:38:
                    c2:8a:b5:22:8e:d7:11:0e:e5:68:3b:50:e1:ba:53:
                    e2:22:c5:fc:75:78:44:e4:d5:ca:66:82:df:19:89:
                    16:31:a6:8f:cf:bd:5d:eb:12:f2:7e:f6:7b:4d:91:
                    0e:f2:7f:53:d3
                Exponent: 65537 (0x10001)
        X509v3 extensions:
            X509v3 Basic Constraints: 
                CA:FALSE
            X509v3 Subject Key Identifier: 
                5D:9C:41:B6:01:E3:34:40:92:F2:61:22:46:29:A9:28:49:C8:A0:8A
            X509v3 Authority Key Identifier: 
                keyid:E6:07:E1:77:B0:98:5A:8D:B3:E0:79:F6:D7:73:7B:42:C3:74:27:F1

            X509v3 Subject Alternative Name: 
                email:admin@qredo.com
    Signature Algorithm: sha256WithRSAEncryption
        38:a7:ce:9b:3b:70:17:49:9a:c1:86:61:d0:62:d8:71:d1:43:
        d9:11:26:eb:5b:32:84:15:82:52:b8:1f:b5:5f:05:8e:14:93:
        61:a4:c2:3a:e5:e2:bb:1d:c3:9d:fe:88:e8:82:49:d8:a3:49:
        6b:f8:3e:c4:ac:b0:fe:2e:7d:96:36:1e:55:e6:79:bf:1c:25:
        88:08:28:2d:3e:41:71:89:b0:f1:9b:3c:08:37:b2:2a:e9:c4:
        5b:f1:5b:66:00:a6:1b:eb:68:bc:c1:f0:0f:7e:b5:64:0e:03:
        c8:e8:f0:09:36:bc:08:8a:55:90:c3:68:09:fc:2a:8f:2d:92:
        99:c9:73:68:68:4b:3f:af:7f:14:9c:37:39:84:a3:c2:75:67:
        26:63:c4:3b:26:d3:05:e9:35:da:3e:36:d0:3a:a8:d0:61:cd:
        68:bd:03:72:03:0f:4f:fd:b1:2e:8a:f1:af:38:ea:c9:bc:b5:
        a4:b2:97:37:e9:42:25:c6:1c:a1:84:77:eb:c0:51:db:d8:ec:
        4f:1a:ff:d3:2c:5b:ee:68:1a:25:fd:28:61:86:90:3b:7d:e7:
        9d:60:81:0a:aa:55:f1:78:95:dc:28:bc:a9:7f:17:97:53:f8:
        79:8e:91:04:16:13:5c:2c:5a:3d:48:f1:f8:20:86:31:eb:50:
        38:f5:85:f6
-----BEGIN CERTIFICATE-----
MIIG/zCCBeegAwIBAgIJALF8/OqiJ4fkMA0GCSqGSIb3DQEBCwUAMIGCMQswCQYD
VQQGEwJVSzEQMA4GA1UECBMHRW5nbGFuZDEPMA0GA1UEBxMGTG9uZG9uMRkwFwYD
VQQKExBRcmVkbyBMdGQgKFRlc3QpMRYwFAYDVQQLEw1EZXYgVW5pdCBUZXN0MR0w
GwYDVQQDExRUZXN0SW50ZXJtZWRpYXRlQ0EtMTAeFw0xNTEyMTQxMTQ2MjdaFw0x
ODEyMTMxMTQ2MjdaMIGPMQswCQYDVQQGEwJVSzEQMA4GA1UECBMHRW5nbGFuZDEP
MA0GA1UEBxMGTG9uZG9uMRkwFwYDVQQKExBRcmVkbyBMdGQgKFRlc3QpMRYwFAYD
VQQLEw1EZXYgVW5pdCBUZXN0MSowKAYDVQQDEyFUZXN0Q2VydDQgdXNpbmcgSW50
ZXJtZWRpYXRlIENBIDEwggQiMA0GCSqGSIb3DQEBAQUAA4IEDwAwggQKAoIEAQCd
+OrKyDqVcSdd8W4VzxORJkG0lJgYnsCBCJNg+vNt5UnILuyYq/VARfWclre3MhcF
odEbe00oOf6U2c+5kTZtEO7UnCxPPr8vucrTW4YyVZEXOI0zEKTwYhlqEXP6SYnO
JVbK0HEYK7NjpV2Nq4V1YEknoSiMnVmGjb0JS8bzdlxOB/oX91NCz3lkkmMPkXfD
NubuYsXHSQjUl48NxkZXO4rs2f3zMT8Ru0kH0zyDhStHZ+Vw7dCfN/U9rrQzSbgK
Is/51eNQZSSvhKhncSvdj+q7vn5M6IlDspcn88J6+RmdO28OAULOP+mVdwCPYOTL
Wwg2FUBjlVhZy9MPoP4d9R3nMa8LTl77RNyVQYjlSc1JEXkmC3gtO8Vjo/lidZbA
ejVxwtWHHInxZdrhN3y4NlgGt6tcIgANCIQlmSqtIV1Ypw5q+bJ8n6ENlc1SCbB+
Gt6m4TC/5EOa31S/aIMWAHgdxxTscB9E/iWgWVA9Sv5IxUf3jpnU6Xkh2Tfn15ah
U0O42g/Dv8yW7WLnF+tbndD6kvCpFW1wvlJUbK/jTk75IYnSc6zDPNszdg8cS8md
0W2L4qqcSph56DPX3pZA0o3O6Qts5U9KgeuT7A81NBXDFHTbIPiPqmbiTggtzqtR
EST4KfN7uEeikWZ4pKA1WdHj8ZIlTkR2ypkyutgjwc6mVPXUbOwfH2fROvILv2+y
obkxZE3GYgnaKHZR+ikJtiwl+zxlsmbjsi0Z1Teb+fKqeTDh2b8nh2DYKBdty0Ju
qJtmWoAlxXzboWNSoB2tUqX4Md/czKWWV8QyNAd6eZxQt8kdaoxUscyFNLB2EIs6
rEvXfdqKpXvbsVNduU1KMi5hP8kNYyLDHTpzcakhNExUNZkgHidhOJjaat9Gm4kC
IP1HDRY7tni/XxBgLHp5on3IFykLFLmlRAn4NZ8ylFQGSgd+r90tUyzLRu1TkBFf
g7g0ahpzZRxyIHnnZRl9UYxIr2JH2DqjsmjNK4NxJm6r5eTvkloq5Xcx880BecjH
gYZcBYZoo9rGFW1uBsHbwYsHE3Mfv/GTIZMNI6X+H5MhWQV4CLvUZeRn+QtOOe3V
ePxX/h3zdYZfRMuKl8rhd2RDj5/614drEKiq+UdnexhqFyzcUN9grJb6YPUdLli2
zMyJz12PlJW7HHxHeR4sPEkVecDsTQjwO4aySLubCtxGyszFi5LBIDT3Vo0s4B1H
BHmQ7DeUu/yIUXLMsvu8Q/ENFjT3d0x8UDhJqxsxDTAE6n8FrrJ7SVQqb92QwKFT
o065Gg5a75fV7RXLOMKKtSKO1xEO5Wg7UOG6U+Iixfx1eETk1cpmgt8ZiRYxpo/P
vV3rEvJ+9ntNkQ7yf1PTAgMBAAGjaTBnMAkGA1UdEwQCMAAwHQYDVR0OBBYEFF2c
QbYB4zRAkvJhIkYpqShJyKCKMB8GA1UdIwQYMBaAFOYH4XewmFqNs+B59tdze0LD
dCfxMBoGA1UdEQQTMBGBD2FkbWluQHFyZWRvLmNvbTANBgkqhkiG9w0BAQsFAAOC
AQEAOKfOmztwF0mawYZh0GLYcdFD2REm61syhBWCUrgftV8FjhSTYaTCOuXiux3D
nf6I6IJJ2KNJa/g+xKyw/i59ljYeVeZ5vxwliAgoLT5BcYmw8Zs8CDeyKunEW/Fb
ZgCmG+tovMHwD361ZA4DyOjwCTa8CIpVkMNoCfwqjy2SmclzaGhLP69/FJw3OYSj
wnVnJmPEOybTBek12j420Dqo0GHNaL0DcgMPT/2xLorxrzjqyby1pLKXN+lCJcYc
oYR368BR29jsTxr/0yxb7mgaJf0oYYaQO33nnWCBCqpV8XiV3Ci8qX8Xl1P4eY6R
BBYTXCxaPUjx+CCGMetQOPWF9g==
-----END CERTIFICATE-----
