Certificate:
    Data:
        Version: 3 (0x2)
        Serial Number:
            f4:15:03:b2:86:25:4f:06
        Signature Algorithm: sha256WithRSAEncryption
        Issuer: C=UK, ST=England, L=London, O=Qredo Ltd (Test), OU=Dev Unit Test, CN=TestIntermediateCA-2
        Validity
            Not Before: Apr 22 14:15:24 2015 GMT
            Not After : Apr 21 14:15:24 2018 GMT
        Subject: C=UK, ST=England, L=London, O=Qredo Ltd (Test), OU=Dev Unit Test, CN=TestCert6 using Intermediate CA 2
        Subject Public Key Info:
            Public Key Algorithm: rsaEncryption
            RSA Public Key: (2048 bit)
                Modulus (2048 bit):
                    00:bf:4a:69:ef:75:6f:4f:66:5c:93:f1:dd:9d:4b:
                    2a:66:60:9c:11:ec:13:b1:e8:79:7e:a6:7c:70:da:
                    21:66:c6:ed:cc:4c:c1:e4:e8:79:3e:48:d8:c8:97:
                    e3:73:0c:49:85:d7:9e:be:0f:99:b6:31:27:a4:a4:
                    5b:8e:fe:55:e7:d3:11:c7:4a:0f:ea:aa:0a:1a:39:
                    ad:ba:49:16:ed:bd:88:fa:57:72:8f:0e:bc:f7:7a:
                    2d:f4:74:1c:49:bf:41:03:7a:de:a9:27:5c:f9:e4:
                    b4:d0:01:4b:6f:fa:f3:ed:ad:08:cf:ae:f9:0a:f9:
                    a9:fa:85:1e:d8:c0:6a:db:3f:f2:76:0e:85:17:ea:
                    35:a3:03:e1:14:99:62:b4:6a:1d:a6:6e:da:29:d7:
                    e2:46:a5:31:b7:27:fc:9f:a8:49:71:1e:73:1a:85:
                    5f:49:88:26:dc:56:bf:8b:f4:c7:c4:6f:86:d2:cd:
                    d0:a5:9f:b5:c6:f8:3e:01:89:cd:4c:6e:e9:09:56:
                    08:2a:d0:15:8a:2c:42:df:08:9e:9a:35:cc:9e:e6:
                    52:73:ea:c0:ed:36:d1:60:c7:bb:87:13:41:cb:d9:
                    86:1f:47:4b:9d:af:38:62:b9:88:ef:37:e2:fb:72:
                    13:c2:d4:ce:d9:d2:64:1d:b4:3d:16:2f:1b:cc:88:
                    86:e7
                Exponent: 65537 (0x10001)
        X509v3 extensions:
            X509v3 Basic Constraints: 
                CA:FALSE
            X509v3 Subject Key Identifier: 
                C3:13:55:5E:D9:D6:37:B2:EC:84:3D:06:88:00:98:95:B9:58:DE:1A
            X509v3 Authority Key Identifier: 
                keyid:B6:3D:88:CF:7B:13:AF:95:18:9D:14:D5:AD:17:57:C4:AB:AD:D3:81

            X509v3 Subject Alternative Name: 
                email:admin@qredo.com
    Signature Algorithm: sha256WithRSAEncryption
        a3:0c:4a:35:98:b8:ad:47:58:bd:65:9a:a7:37:ed:87:b4:14:
        34:3c:72:d2:eb:a7:5a:ce:c1:6d:f7:44:5b:b7:1b:09:a4:38:
        83:08:55:b3:f1:53:2c:f2:b9:18:01:8a:14:4a:fc:c4:cc:17:
        fa:34:df:d6:b2:fd:42:e7:9b:ce:0c:6e:8a:e9:31:5e:18:1f:
        86:22:27:45:43:c3:a2:7a:d9:00:ce:ca:99:3f:f1:e9:31:52:
        29:95:65:21:2f:a8:ad:59:d0:e3:f7:46:cf:6c:35:f9:ff:e8:
        90:c8:8a:f1:4c:2b:ec:e3:d4:03:58:a1:78:d8:7a:06:b9:97:
        30:be:fd:4c:dd:2c:1d:58:59:0c:e1:da:25:9e:b9:07:0f:38:
        61:c9:81:a7:10:ee:b1:e7:97:84:c3:1e:59:7f:ae:5f:1b:96:
        10:8a:9f:e9:06:d6:c2:a1:94:3e:fb:3e:14:5e:17:13:aa:23:
        65:19:bc:00:b2:e7:60:4a:93:3f:f0:ce:5e:ee:cf:5b:62:96:
        bd:6f:1b:e6:44:90:61:ad:65:aa:11:90:fe:ed:a6:35:67:bd:
        c8:a7:88:21:93:af:d9:4f:24:c1:0a:82:4b:b7:09:45:36:7b:
        79:78:3e:a2:0b:d1:78:11:1c:db:25:a9:0d:76:19:73:58:7a:
        4b:ef:36:56
-----BEGIN CERTIFICATE-----
MIID/zCCAuegAwIBAgIJAPQVA7KGJU8GMA0GCSqGSIb3DQEBCwUAMIGCMQswCQYD
VQQGEwJVSzEQMA4GA1UECBMHRW5nbGFuZDEPMA0GA1UEBxMGTG9uZG9uMRkwFwYD
VQQKExBRcmVkbyBMdGQgKFRlc3QpMRYwFAYDVQQLEw1EZXYgVW5pdCBUZXN0MR0w
GwYDVQQDExRUZXN0SW50ZXJtZWRpYXRlQ0EtMjAeFw0xNTA0MjIxNDE1MjRaFw0x
ODA0MjExNDE1MjRaMIGPMQswCQYDVQQGEwJVSzEQMA4GA1UECBMHRW5nbGFuZDEP
MA0GA1UEBxMGTG9uZG9uMRkwFwYDVQQKExBRcmVkbyBMdGQgKFRlc3QpMRYwFAYD
VQQLEw1EZXYgVW5pdCBUZXN0MSowKAYDVQQDEyFUZXN0Q2VydDYgdXNpbmcgSW50
ZXJtZWRpYXRlIENBIDIwggEiMA0GCSqGSIb3DQEBAQUAA4IBDwAwggEKAoIBAQC/
SmnvdW9PZlyT8d2dSypmYJwR7BOx6Hl+pnxw2iFmxu3MTMHk6Hk+SNjIl+NzDEmF
156+D5m2MSekpFuO/lXn0xHHSg/qqgoaOa26SRbtvYj6V3KPDrz3ei30dBxJv0ED
et6pJ1z55LTQAUtv+vPtrQjPrvkK+an6hR7YwGrbP/J2DoUX6jWjA+EUmWK0ah2m
btop1+JGpTG3J/yfqElxHnMahV9JiCbcVr+L9MfEb4bSzdCln7XG+D4Bic1MbukJ
Vggq0BWKLELfCJ6aNcye5lJz6sDtNtFgx7uHE0HL2YYfR0udrzhiuYjvN+L7chPC
1M7Z0mQdtD0WLxvMiIbnAgMBAAGjaTBnMAkGA1UdEwQCMAAwHQYDVR0OBBYEFMMT
VV7Z1jey7IQ9BogAmJW5WN4aMB8GA1UdIwQYMBaAFLY9iM97E6+VGJ0U1a0XV8Sr
rdOBMBoGA1UdEQQTMBGBD2FkbWluQHFyZWRvLmNvbTANBgkqhkiG9w0BAQsFAAOC
AQEAowxKNZi4rUdYvWWapzfth7QUNDxy0uunWs7BbfdEW7cbCaQ4gwhVs/FTLPK5
GAGKFEr8xMwX+jTf1rL9QuebzgxuiukxXhgfhiInRUPDonrZAM7KmT/x6TFSKZVl
IS+orVnQ4/dGz2w1+f/okMiK8Uwr7OPUA1iheNh6BrmXML79TN0sHVhZDOHaJZ65
Bw84YcmBpxDuseeXhMMeWX+uXxuWEIqf6QbWwqGUPvs+FF4XE6ojZRm8ALLnYEqT
P/DOXu7PW2KWvW8b5kSQYa1lqhGQ/u2mNWe9yKeIIZOv2U8kwQqCS7cJRTZ7eXg+
ogvReBEc2yWpDXYZc1h6S+82Vg==
-----END CERTIFICATE-----
