Certificate:
    Data:
        Version: 3 (0x2)
        Serial Number:
            b1:7c:fc:ea:a2:27:87:df
        Signature Algorithm: sha256WithRSAEncryption
        Issuer: C=UK, ST=England, O=Qredo Ltd (Test), OU=Dev Unit Test, CN=TestRootCA
        Validity
            Not Before: Dec 14 11:46:04 2015 GMT
            Not After : Dec 13 11:46:04 2018 GMT
        Subject: C=UK, ST=England, L=London, O=Qredo Ltd (Test), OU=Dev Unit Test, CN=TestIntermediateCA-1
        Subject Public Key Info:
            Public Key Algorithm: rsaEncryption
            RSA Public Key: (2048 bit)
                Modulus (2048 bit):
                    00:ad:7a:a9:1f:86:4b:b8:13:18:6e:cb:30:ee:c8:
                    12:1b:ed:2b:71:44:7c:63:da:46:5e:00:d2:92:fe:
                    e9:92:01:53:6a:f3:9c:2e:80:1d:d0:c7:b7:c9:47:
                    21:9c:71:fa:68:02:38:79:c5:91:1a:e4:08:10:71:
                    c8:51:f4:3e:f7:92:60:13:3d:0c:2e:e3:c0:6f:0d:
                    c6:20:68:59:9c:7d:2a:45:4c:c0:a3:68:d9:62:55:
                    f0:9c:9f:00:99:fd:28:85:82:ea:32:85:ac:fa:e7:
                    04:17:23:b4:4b:ad:fd:67:79:f2:89:65:b6:23:d9:
                    57:a7:61:f4:37:96:60:07:1a:95:54:7a:89:cf:31:
                    08:01:2e:03:c9:06:82:a6:fe:88:e8:10:b0:62:03:
                    db:c1:3a:4c:9f:cb:f6:f4:f6:cc:9f:ec:11:02:0d:
                    59:ca:38:c5:48:21:94:7d:75:24:fc:7c:6a:5a:d7:
                    80:9a:80:69:b9:b3:2d:29:86:d0:fc:19:bc:4e:a0:
                    72:e9:04:3d:d9:ba:f6:2d:13:3f:68:3d:99:3b:e6:
                    66:41:78:cd:1c:2b:8f:80:cf:39:e8:4c:64:f9:76:
                    63:91:e3:ee:bb:a6:39:55:ea:6f:78:0d:d1:d6:a0:
                    69:cd:52:90:c8:35:9a:98:9b:da:10:9c:5d:ec:a9:
                    30:13
                Exponent: 65537 (0x10001)
        X509v3 extensions:
            X509v3 Subject Key Identifier: 
                E6:07:E1:77:B0:98:5A:8D:B3:E0:79:F6:D7:73:7B:42:C3:74:27:F1
            X509v3 Authority Key Identifier: 
                keyid:24:E9:3E:16:C6:D1:B6:9C:11:AD:EE:EF:F6:EB:C5:14:0A:E1:50:4E
                DirName:/C=UK/ST=England/O=Qredo Ltd (Test)/OU=Dev Unit Test/CN=TestRootCA
                serial:B1:7C:FC:EA:A2:27:87:DE

            X509v3 Basic Constraints: 
                CA:TRUE
            X509v3 Subject Alternative Name: 
                DNS:qredo.com
    Signature Algorithm: sha256WithRSAEncryption
        39:40:1f:39:43:f7:0c:0a:59:3d:de:40:ed:a6:e9:46:65:6d:
        79:48:3d:64:16:e0:da:69:10:b2:4f:ed:1f:8c:79:24:43:01:
        22:80:5f:53:8b:60:e0:5e:8c:e9:65:76:a5:32:af:87:c0:ef:
        72:36:15:91:65:72:e2:ca:5f:77:ed:7f:4a:16:53:64:1b:45:
        3e:14:32:da:1f:60:31:ca:fa:b9:f7:66:97:a0:53:6f:bb:2f:
        92:ac:89:fd:61:7e:ac:ec:d3:41:a6:9d:e1:6b:03:b2:06:6c:
        82:fe:93:0c:10:0c:46:be:c7:13:c6:f8:69:26:02:1d:ff:49:
        9d:76:13:3c:7c:12:06:77:7c:dc:9a:63:fe:4f:6a:62:90:b9:
        9c:b5:39:a2:1b:88:08:5d:e9:29:eb:c4:17:37:de:c8:fe:63:
        a1:c4:18:01:c8:48:4c:df:cd:75:4a:24:ce:92:d5:7b:36:83:
        7b:b6:f5:4f:dd:cb:1e:73:b3:05:c8:b7:23:57:e2:0f:07:77:
        ac:62:ac:a1:3a:27:9f:49:c5:07:a2:82:00:bf:46:c0:0c:9c:
        39:92:be:ab:17:fd:0e:c9:ce:ce:c9:f1:48:10:af:fc:55:a3:
        0f:7f:85:61:b1:23:ce:7f:19:a7:50:ca:16:cf:46:4c:42:79:
        d9:3e:c3:b8
-----BEGIN CERTIFICATE-----
MIIEUDCCAzigAwIBAgIJALF8/OqiJ4ffMA0GCSqGSIb3DQEBCwUAMGcxCzAJBgNV
BAYTAlVLMRAwDgYDVQQIEwdFbmdsYW5kMRkwFwYDVQQKExBRcmVkbyBMdGQgKFRl
c3QpMRYwFAYDVQQLEw1EZXYgVW5pdCBUZXN0MRMwEQYDVQQDEwpUZXN0Um9vdENB
MB4XDTE1MTIxNDExNDYwNFoXDTE4MTIxMzExNDYwNFowgYIxCzAJBgNVBAYTAlVL
MRAwDgYDVQQIEwdFbmdsYW5kMQ8wDQYDVQQHEwZMb25kb24xGTAXBgNVBAoTEFFy
ZWRvIEx0ZCAoVGVzdCkxFjAUBgNVBAsTDURldiBVbml0IFRlc3QxHTAbBgNVBAMT
FFRlc3RJbnRlcm1lZGlhdGVDQS0xMIIBIjANBgkqhkiG9w0BAQEFAAOCAQ8AMIIB
CgKCAQEArXqpH4ZLuBMYbssw7sgSG+0rcUR8Y9pGXgDSkv7pkgFTavOcLoAd0Me3
yUchnHH6aAI4ecWRGuQIEHHIUfQ+95JgEz0MLuPAbw3GIGhZnH0qRUzAo2jZYlXw
nJ8Amf0ohYLqMoWs+ucEFyO0S639Z3nyiWW2I9lXp2H0N5ZgBxqVVHqJzzEIAS4D
yQaCpv6I6BCwYgPbwTpMn8v29PbMn+wRAg1ZyjjFSCGUfXUk/HxqWteAmoBpubMt
KYbQ/Bm8TqBy6QQ92br2LRM/aD2ZO+ZmQXjNHCuPgM856Exk+XZjkePuu6Y5Vepv
eA3R1qBpzVKQyDWamJvaEJxd7KkwEwIDAQABo4HiMIHfMB0GA1UdDgQWBBTmB+F3
sJhajbPgefbXc3tCw3Qn8TCBmQYDVR0jBIGRMIGOgBQk6T4WxtG2nBGt7u/268UU
CuFQTqFrpGkwZzELMAkGA1UEBhMCVUsxEDAOBgNVBAgTB0VuZ2xhbmQxGTAXBgNV
BAoTEFFyZWRvIEx0ZCAoVGVzdCkxFjAUBgNVBAsTDURldiBVbml0IFRlc3QxEzAR
BgNVBAMTClRlc3RSb290Q0GCCQCxfPzqoieH3jAMBgNVHRMEBTADAQH/MBQGA1Ud
EQQNMAuCCXFyZWRvLmNvbTANBgkqhkiG9w0BAQsFAAOCAQEAOUAfOUP3DApZPd5A
7abpRmVteUg9ZBbg2mkQsk/tH4x5JEMBIoBfU4tg4F6M6WV2pTKvh8DvcjYVkWVy
4spfd+1/ShZTZBtFPhQy2h9gMcr6ufdml6BTb7svkqyJ/WF+rOzTQaad4WsDsgZs
gv6TDBAMRr7HE8b4aSYCHf9JnXYTPHwSBnd83Jpj/k9qYpC5nLU5ohuICF3pKevE
FzfeyP5jocQYAchITN/NdUokzpLVezaDe7b1T93LHnOzBci3I1fiDwd3rGKsoTon
n0nFB6KCAL9GwAycOZK+qxf9DsnOzsnxSBCv/FWjD3+FYbEjzn8Zp1DKFs9GTEJ5
2T7DuA==
-----END CERTIFICATE-----
